# ProgAB ProgDB dataDBr read write DataAB DataDBw        AssemblyCode
0000 9488 ZZ 1 1 XXXX XX         start_test_add:
0001 9498 ZZ 1 1 XXXX XX         start_test_add:
0002 94A8 ZZ 1 1 XXXX XX         start_test_add:
0003 94B8 ZZ 1 1 XXXX XX         start_test_add:
0004 94C8 ZZ 1 1 XXXX XX         start_test_add:
0005 94D8 ZZ 1 1 XXXX XX         start_test_add:
0006 94E8 ZZ 1 1 XXXX XX         start_test_add:
0007 94F8 ZZ 1 1 XXXX XX             CLR_SREG
0008 E000 ZZ 1 1 XXXX XX             ldi r16, $00    ; 
0009 EA1F ZZ 1 1 XXXX XX             ldi r17, $AF    ;
000A 0F01 ZZ 1 1 XXXX XX             ADD r16, r17    ;
000B B72F ZZ 1 1 XXXX XX             IN  r18, $3F    ; Read the Status register
000C E0B1 ZZ 1 1 XXXX XX             LDI r27, $01    ;
000D E0A0 ZZ 1 1 XXXX XX             LDI r26, $00    ;
000E 930C ZZ 1 1 XXXX XX             ST  X,   r16    ;W AF 0100
XXXX 930C ZZ 1 0 0100 AF             ST  X,   r16    ;W AF 0100
000F 931C ZZ 1 1 XXXX XX             ST  X,   r17    ;W AF 0100
XXXX 931C ZZ 1 0 0100 AF             ST  X,   r17    ;W AF 0100
0010 932C ZZ 1 1 XXXX XX             ST  X,   r18    ;W 14 0100
XXXX 932C ZZ 1 0 0100 14             ST  X,   r18    ;W 14 0100
0011 EA0F ZZ 1 1 XXXX XX             ldi r16, $AF    ; 
0012 E010 ZZ 1 1 XXXX XX             ldi r17, $00    ;
0013 0F01 ZZ 1 1 XXXX XX             ADD r16, r17    ;
0014 B72F ZZ 1 1 XXXX XX             IN  r18, $3F    ; Read the Status register
0015 E0B1 ZZ 1 1 XXXX XX             LDI r27, $01    ;
0016 E0A0 ZZ 1 1 XXXX XX             LDI r26, $00    ;
0017 930C ZZ 1 1 XXXX XX             ST  X,   r16    ;W AF 0100
XXXX 930C ZZ 1 0 0100 AF             ST  X,   r16    ;W AF 0100
0018 931C ZZ 1 1 XXXX XX             ST  X,   r17    ;W 00 0100
XXXX 931C ZZ 1 0 0100 00             ST  X,   r17    ;W 00 0100
0019 932C ZZ 1 1 XXXX XX             ST  X,   r18    ;W 14 0100
XXXX 932C ZZ 1 0 0100 14             ST  X,   r18    ;W 14 0100
001A EB00 ZZ 1 1 XXXX XX             ldi r16, $B0    ; 
001B E81F ZZ 1 1 XXXX XX             ldi r17, $8F    ;
001C 0F01 ZZ 1 1 XXXX XX             ADD r16, r17    ; -- 176 + 143 = 319 = 63 mod 256, carry 1
001D B72F ZZ 1 1 XXXX XX             IN  r18, $3F    ; Read the Status register
001E E0B1 ZZ 1 1 XXXX XX             LDI r27, $01    ;
001F E0A0 ZZ 1 1 XXXX XX             LDI r26, $00    ;
0020 930C ZZ 1 1 XXXX XX             ST  X,   r16    ;W 3F 0100
XXXX 930C ZZ 1 0 0100 3F             ST  X,   r16    ;W 3F 0100
0021 931C ZZ 1 1 XXXX XX             ST  X,   r17    ;W 8F 0100
XXXX 931C ZZ 1 0 0100 8F             ST  X,   r17    ;W 8F 0100
0022 932C ZZ 1 1 XXXX XX             ST  X,   r18    ;W 19 0100
XXXX 932C ZZ 1 0 0100 19             ST  X,   r18    ;W 19 0100
0023 E70F ZZ 1 1 XXXX XX             ldi r16, $7F    ; 
0024 E811 ZZ 1 1 XXXX XX             ldi r17, $81    ;
0025 0F01 ZZ 1 1 XXXX XX             ADD r16, r17    ; -- 127 + 129 = 0 with carry 1
0026 B72F ZZ 1 1 XXXX XX             IN  r18, $3F    ; Read the Status register
0027 E0B1 ZZ 1 1 XXXX XX             LDI r27, $01    ;
0028 E0A0 ZZ 1 1 XXXX XX             LDI r26, $00    ;
0029 930C ZZ 1 1 XXXX XX             ST  X,   r16    ;W 00 0100
XXXX 930C ZZ 1 0 0100 00             ST  X,   r16    ;W 00 0100
002A 931C ZZ 1 1 XXXX XX             ST  X,   r17    ;W 81 0100
XXXX 931C ZZ 1 0 0100 81             ST  X,   r17    ;W 81 0100
002B 932C ZZ 1 1 XXXX XX             ST  X,   r18    ;W 23 0100
XXXX 932C ZZ 1 0 0100 23             ST  X,   r18    ;W 23 0100
002C E000 ZZ 1 1 XXXX XX             ldi r16, $00    ; 
002D E010 ZZ 1 1 XXXX XX             ldi r17, $00    ;
002E 0F01 ZZ 1 1 XXXX XX             ADD r16, r17    ; -- 176 + 143 = 319 = 63 mod 256, carry 1
002F B72F ZZ 1 1 XXXX XX             IN  r18, $3F    ; Read the Status register
0030 E0B1 ZZ 1 1 XXXX XX             LDI r27, $01    ;
0031 E0A0 ZZ 1 1 XXXX XX             LDI r26, $00    ;
0032 930C ZZ 1 1 XXXX XX             ST  X,   r16    ;W 00 0100
XXXX 930C ZZ 1 0 0100 00             ST  X,   r16    ;W 00 0100
0033 931C ZZ 1 1 XXXX XX             ST  X,   r17    ;W 00 0100
XXXX 931C ZZ 1 0 0100 00             ST  X,   r17    ;W 00 0100
0034 932C ZZ 1 1 XXXX XX             ST  X,   r18    ;W 02 0100
XXXX 932C ZZ 1 0 0100 02             ST  X,   r18    ;W 02 0100
0035 9488 ZZ 1 1 XXXX XX         start_test_adc:
0036 9498 ZZ 1 1 XXXX XX         start_test_adc:
0037 94A8 ZZ 1 1 XXXX XX         start_test_adc:
0038 94B8 ZZ 1 1 XXXX XX         start_test_adc:
0039 94C8 ZZ 1 1 XXXX XX         start_test_adc:
003A 94D8 ZZ 1 1 XXXX XX         start_test_adc:
003B 94E8 ZZ 1 1 XXXX XX         start_test_adc:
003C 94F8 ZZ 1 1 XXXX XX             CLR_SREG
003D 9488 ZZ 1 1 XXXX XX             BCLR SREG_C     ; Clear carry flag
003E E000 ZZ 1 1 XXXX XX             ldi r16, $00    ; 
003F EA1F ZZ 1 1 XXXX XX             ldi r17, $AF    ;
0040 1F01 ZZ 1 1 XXXX XX             ADC r16, r17    ;
0041 B72F ZZ 1 1 XXXX XX             IN  r18, $3F    ; Read the Status register
0042 E0B1 ZZ 1 1 XXXX XX             LDI r27, $01    ;
0043 E0A0 ZZ 1 1 XXXX XX             LDI r26, $00    ;
0044 930C ZZ 1 1 XXXX XX             ST  X,   r16    ;W AF 0100
XXXX 930C ZZ 1 0 0100 AF             ST  X,   r16    ;W AF 0100
0045 931C ZZ 1 1 XXXX XX             ST  X,   r17    ;W AF 0100
XXXX 931C ZZ 1 0 0100 AF             ST  X,   r17    ;W AF 0100
0046 932C ZZ 1 1 XXXX XX             ST  X,   r18    ;W 14 0100
XXXX 932C ZZ 1 0 0100 14             ST  X,   r18    ;W 14 0100
0047 9488 ZZ 1 1 XXXX XX             BCLR SREG_C     ; Clear carry flag
0048 EA0F ZZ 1 1 XXXX XX             ldi r16, $AF    ; 
0049 E010 ZZ 1 1 XXXX XX             ldi r17, $00    ;
004A 1F01 ZZ 1 1 XXXX XX             ADC r16, r17    ;
004B B72F ZZ 1 1 XXXX XX             IN  r18, $3F    ; Read the Status register
004C E0B1 ZZ 1 1 XXXX XX             LDI r27, $01    ;
004D E0A0 ZZ 1 1 XXXX XX             LDI r26, $00    ;
004E 930C ZZ 1 1 XXXX XX             ST  X,   r16    ;W AF 0100
XXXX 930C ZZ 1 0 0100 AF             ST  X,   r16    ;W AF 0100
004F 931C ZZ 1 1 XXXX XX             ST  X,   r17    ;W 00 0100
XXXX 931C ZZ 1 0 0100 00             ST  X,   r17    ;W 00 0100
0050 932C ZZ 1 1 XXXX XX             ST  X,   r18    ;W 14 0100
XXXX 932C ZZ 1 0 0100 14             ST  X,   r18    ;W 14 0100
0051 9488 ZZ 1 1 XXXX XX             BCLR SREG_C     ; Clear carry flag
0052 EB00 ZZ 1 1 XXXX XX             ldi r16, $B0    ; 
0053 E81F ZZ 1 1 XXXX XX             ldi r17, $8F    ;
0054 1F01 ZZ 1 1 XXXX XX             ADC r16, r17    ; -- 176 + 143 = 319 = 63 mod 256, carry 1
0055 B72F ZZ 1 1 XXXX XX             IN  r18, $3F    ; Read the Status register
0056 E0B1 ZZ 1 1 XXXX XX             LDI r27, $01    ;
0057 E0A0 ZZ 1 1 XXXX XX             LDI r26, $00    ;
0058 930C ZZ 1 1 XXXX XX             ST  X,   r16    ;W 3F 0100
XXXX 930C ZZ 1 0 0100 3F             ST  X,   r16    ;W 3F 0100
0059 931C ZZ 1 1 XXXX XX             ST  X,   r17    ;W 8F 0100
XXXX 931C ZZ 1 0 0100 8F             ST  X,   r17    ;W 8F 0100
005A 932C ZZ 1 1 XXXX XX             ST  X,   r18    ;W 19 0100
XXXX 932C ZZ 1 0 0100 19             ST  X,   r18    ;W 19 0100
005B 9488 ZZ 1 1 XXXX XX             BCLR SREG_C     ; Clear carry flag
005C E70F ZZ 1 1 XXXX XX             ldi r16, $7F    ; 
005D E811 ZZ 1 1 XXXX XX             ldi r17, $81    ;
005E 1F01 ZZ 1 1 XXXX XX             ADC r16, r17    ; -- 127 + 129 = 0 with carry 1
005F B72F ZZ 1 1 XXXX XX             IN  r18, $3F    ; Read the Status register
0060 E0B1 ZZ 1 1 XXXX XX             LDI r27, $01    ;
0061 E0A0 ZZ 1 1 XXXX XX             LDI r26, $00    ;
0062 930C ZZ 1 1 XXXX XX             ST  X,   r16    ;W 00 0100
XXXX 930C ZZ 1 0 0100 00             ST  X,   r16    ;W 00 0100
0063 931C ZZ 1 1 XXXX XX             ST  X,   r17    ;W 81 0100
XXXX 931C ZZ 1 0 0100 81             ST  X,   r17    ;W 81 0100
0064 932C ZZ 1 1 XXXX XX             ST  X,   r18    ;W 23 0100
XXXX 932C ZZ 1 0 0100 23             ST  X,   r18    ;W 23 0100
0065 9488 ZZ 1 1 XXXX XX             BCLR SREG_C     ; Clear carry flag
0066 E000 ZZ 1 1 XXXX XX             ldi r16, $00    ; 
0067 E010 ZZ 1 1 XXXX XX             ldi r17, $00    ;
0068 1F01 ZZ 1 1 XXXX XX             ADC r16, r17    ; -- 176 + 143 = 319 = 63 mod 256, carry 1
0069 B72F ZZ 1 1 XXXX XX             IN  r18, $3F    ; Read the Status register
006A E0B1 ZZ 1 1 XXXX XX             LDI r27, $01    ;
006B E0A0 ZZ 1 1 XXXX XX             LDI r26, $00    ;
006C 930C ZZ 1 1 XXXX XX             ST  X,   r16    ;W 00 0100
XXXX 930C ZZ 1 0 0100 00             ST  X,   r16    ;W 00 0100
006D 931C ZZ 1 1 XXXX XX             ST  X,   r17    ;W 00 0100
XXXX 931C ZZ 1 0 0100 00             ST  X,   r17    ;W 00 0100
006E 932C ZZ 1 1 XXXX XX             ST  X,   r18    ;W 02 0100
XXXX 932C ZZ 1 0 0100 02             ST  X,   r18    ;W 02 0100
006F 9408 ZZ 1 1 XXXX XX             BSET SREG_C     ; Set carry flag
0070 E000 ZZ 1 1 XXXX XX             ldi r16, $00    ; 
0071 E010 ZZ 1 1 XXXX XX             ldi r17, $00    ;
0072 1F01 ZZ 1 1 XXXX XX             ADC r16, r17    ; -- 176 + 143 = 319 = 63 mod 256, carry 1
0073 B72F ZZ 1 1 XXXX XX             IN  r18, $3F    ; Read the Status register
0074 E0B1 ZZ 1 1 XXXX XX             LDI r27, $01    ;
0075 E0A0 ZZ 1 1 XXXX XX             LDI r26, $00    ;
0076 930C ZZ 1 1 XXXX XX             ST  X,   r16    ;W 01 0100
XXXX 930C ZZ 1 0 0100 01             ST  X,   r16    ;W 01 0100
0077 931C ZZ 1 1 XXXX XX             ST  X,   r17    ;W 00 0100
XXXX 931C ZZ 1 0 0100 00             ST  X,   r17    ;W 00 0100
0078 932C ZZ 1 1 XXXX XX             ST  X,   r18    ;W 00 0100
XXXX 932C ZZ 1 0 0100 00             ST  X,   r18    ;W 00 0100
0079 9408 ZZ 1 1 XXXX XX             BSET SREG_C     ; Clear carry flag
007A E70F ZZ 1 1 XXXX XX             ldi r16, $7F    ; 
007B E811 ZZ 1 1 XXXX XX             ldi r17, $81    ;
007C 1F01 ZZ 1 1 XXXX XX             ADC r16, r17    ; -- 127 + 129 = 0 with carry 1
007D B72F ZZ 1 1 XXXX XX             IN  r18, $3F    ; Read the Status register
007E E0B1 ZZ 1 1 XXXX XX             LDI r27, $01    ;
007F E0A0 ZZ 1 1 XXXX XX             LDI r26, $00    ;
0080 930C ZZ 1 1 XXXX XX             ST  X,   r16    ;W 01 0100
XXXX 930C ZZ 1 0 0100 01             ST  X,   r16    ;W 01 0100
0081 931C ZZ 1 1 XXXX XX             ST  X,   r17    ;W 81 0100
XXXX 931C ZZ 1 0 0100 81             ST  X,   r17    ;W 81 0100
0082 932C ZZ 1 1 XXXX XX             ST  X,   r18    ;W 21 0100
XXXX 932C ZZ 1 0 0100 21             ST  X,   r18    ;W 21 0100
0083 9408 ZZ 1 1 XXXX XX             BSET SREG_C     ; Clear carry flag
0084 E70E ZZ 1 1 XXXX XX             ldi r16, $7E    ; 
0085 E811 ZZ 1 1 XXXX XX             ldi r17, $81    ;
0086 1F01 ZZ 1 1 XXXX XX             ADC r16, r17    ; -- 127 + 129 = 0 with carry 1
0087 B72F ZZ 1 1 XXXX XX             IN  r18, $3F    ; Read the Status register
0088 E0B1 ZZ 1 1 XXXX XX             LDI r27, $01    ;
0089 E0A0 ZZ 1 1 XXXX XX             LDI r26, $00    ;
008A 930C ZZ 1 1 XXXX XX             ST  X,   r16    ;W 00 0100
XXXX 930C ZZ 1 0 0100 00             ST  X,   r16    ;W 00 0100
008B 931C ZZ 1 1 XXXX XX             ST  X,   r17    ;W 81 0100
XXXX 931C ZZ 1 0 0100 81             ST  X,   r17    ;W 81 0100
008C 932C ZZ 1 1 XXXX XX             ST  X,   r18    ;W 23 0100
XXXX 932C ZZ 1 0 0100 23             ST  X,   r18    ;W 23 0100
008D 9488 ZZ 1 1 XXXX XX         start_test_adiw:
008E 9498 ZZ 1 1 XXXX XX         start_test_adiw:
008F 94A8 ZZ 1 1 XXXX XX         start_test_adiw:
0090 94B8 ZZ 1 1 XXXX XX         start_test_adiw:
0091 94C8 ZZ 1 1 XXXX XX         start_test_adiw:
0092 94D8 ZZ 1 1 XXXX XX         start_test_adiw:
0093 94E8 ZZ 1 1 XXXX XX         start_test_adiw:
0094 94F8 ZZ 1 1 XXXX XX             CLR_SREG
0095 94D8 ZZ 1 1 XXXX XX             BCLR SREG_H       ; Explicitly make clear H flag is clear, even though done
0096 E080 ZZ 1 1 XXXX XX             LDI r24, $00
0097 E090 ZZ 1 1 XXXX XX             LDI r25, $00
0098 9600 ZZ 1 1 XXXX XX             ADIW r25:r24, 0
XXXX 9600 ZZ 1 1 XXXX XX             ADIW r25:r24, 0
0099 B72F ZZ 1 1 XXXX XX             IN  r18, $3F      ; Read the Status register
009A 9390 ZZ 1 1 XXXX XX             STS $0101, r25    ;W 00 0101
009B 0101 ZZ 1 0 0101 00             STS $0101, r25    ;W 00 0101
XXXX 0101 ZZ 1 1 XXXX XX             STS $0101, r25    ;W 00 0101
009C 9380 ZZ 1 1 XXXX XX             STS $0100, r24    ;W 00 0100
009D 0100 ZZ 1 0 0100 00             STS $0100, r24    ;W 00 0100
XXXX 0100 ZZ 1 1 XXXX XX             STS $0100, r24    ;W 00 0100
009E 9320 ZZ 1 1 XXXX XX             STS $0100, r18    ;W 02 0100
009F 0100 ZZ 1 0 0100 02             STS $0100, r18    ;W 02 0100
XXXX 0100 ZZ 1 1 XXXX XX             STS $0100, r18    ;W 02 0100
00A0 9458 ZZ 1 1 XXXX XX             BSET SREG_H
00A1 E080 ZZ 1 1 XXXX XX             LDI r24, $00
00A2 E090 ZZ 1 1 XXXX XX             LDI r25, $00
00A3 9600 ZZ 1 1 XXXX XX             ADIW r25:r24, 0
XXXX 9600 ZZ 1 1 XXXX XX             ADIW r25:r24, 0
00A4 B72F ZZ 1 1 XXXX XX             IN  r18, $3F      ; Read the Status register
00A5 9390 ZZ 1 1 XXXX XX             STS $0101, r25    ;W 00 0101
00A6 0101 ZZ 1 0 0101 00             STS $0101, r25    ;W 00 0101
XXXX 0101 ZZ 1 1 XXXX XX             STS $0101, r25    ;W 00 0101
00A7 9380 ZZ 1 1 XXXX XX             STS $0100, r24    ;W 00 0100
00A8 0100 ZZ 1 0 0100 00             STS $0100, r24    ;W 00 0100
XXXX 0100 ZZ 1 1 XXXX XX             STS $0100, r24    ;W 00 0100
00A9 9320 ZZ 1 1 XXXX XX             STS $0100, r18    ;W 22 0100
00AA 0100 ZZ 1 0 0100 22             STS $0100, r18    ;W 22 0100
XXXX 0100 ZZ 1 1 XXXX XX             STS $0100, r18    ;W 22 0100
00AB 94D8 ZZ 1 1 XXXX XX             BCLR SREG_H
00AC E08F ZZ 1 1 XXXX XX             LDI r24, $0F
00AD E090 ZZ 1 1 XXXX XX             LDI r25, $00
00AE 9601 ZZ 1 1 XXXX XX             ADIW r25:r24, 1
XXXX 9601 ZZ 1 1 XXXX XX             ADIW r25:r24, 1
00AF B72F ZZ 1 1 XXXX XX             IN  r18, $3F      ; Read the Status register
00B0 9390 ZZ 1 1 XXXX XX             STS $0101, r25    ;W 00 0101
00B1 0101 ZZ 1 0 0101 00             STS $0101, r25    ;W 00 0101
XXXX 0101 ZZ 1 1 XXXX XX             STS $0101, r25    ;W 00 0101
00B2 9380 ZZ 1 1 XXXX XX             STS $0100, r24    ;W 10 0100
00B3 0100 ZZ 1 0 0100 10             STS $0100, r24    ;W 10 0100
XXXX 0100 ZZ 1 1 XXXX XX             STS $0100, r24    ;W 10 0100
00B4 9320 ZZ 1 1 XXXX XX             STS $0100, r18    ;W 00 0100
00B5 0100 ZZ 1 0 0100 00             STS $0100, r18    ;W 00 0100
XXXX 0100 ZZ 1 1 XXXX XX             STS $0100, r18    ;W 00 0100
00B6 EF8F ZZ 1 1 XXXX XX             LDI r24, $FF
00B7 E090 ZZ 1 1 XXXX XX             LDI r25, $00
00B8 9601 ZZ 1 1 XXXX XX             ADIW r25:r24, 1
XXXX 9601 ZZ 1 1 XXXX XX             ADIW r25:r24, 1
00B9 B72F ZZ 1 1 XXXX XX             IN  r18, $3F      ; Read the Status register
00BA 9390 ZZ 1 1 XXXX XX             STS $0101, r25    ;W 01 0101
00BB 0101 ZZ 1 0 0101 01             STS $0101, r25    ;W 01 0101
XXXX 0101 ZZ 1 1 XXXX XX             STS $0101, r25    ;W 01 0101
00BC 9380 ZZ 1 1 XXXX XX             STS $0100, r24    ;W 00 0100
00BD 0100 ZZ 1 0 0100 00             STS $0100, r24    ;W 00 0100
XXXX 0100 ZZ 1 1 XXXX XX             STS $0100, r24    ;W 00 0100
00BE 9320 ZZ 1 1 XXXX XX             STS $0100, r18    ;W 00 0100
00BF 0100 ZZ 1 0 0100 00             STS $0100, r18    ;W 00 0100
XXXX 0100 ZZ 1 1 XXXX XX             STS $0100, r18    ;W 00 0100
00C0 EE8B ZZ 1 1 XXXX XX             LDI r24, 235
00C1 E79F ZZ 1 1 XXXX XX             LDI r25, 127
00C2 9644 ZZ 1 1 XXXX XX             ADIW r25:r24, 20  ; 127*256 + 235 + 20 = 127*256 + 255
XXXX 9644 ZZ 1 1 XXXX XX             ADIW r25:r24, 20  ; 127*256 + 235 + 20 = 127*256 + 255
00C3 B72F ZZ 1 1 XXXX XX             IN  r18, $3F      ; Read the Status register
00C4 9390 ZZ 1 1 XXXX XX             STS $0101, r25    ;W 7F 0101
00C5 0101 ZZ 1 0 0101 7F             STS $0101, r25    ;W 7F 0101
XXXX 0101 ZZ 1 1 XXXX XX             STS $0101, r25    ;W 7F 0101
00C6 9380 ZZ 1 1 XXXX XX             STS $0100, r24    ;W FF 0100
00C7 0100 ZZ 1 0 0100 FF             STS $0100, r24    ;W FF 0100
XXXX 0100 ZZ 1 1 XXXX XX             STS $0100, r24    ;W FF 0100
00C8 9320 ZZ 1 1 XXXX XX             STS $0100, r18    ;W 00 0100
00C9 0100 ZZ 1 0 0100 00             STS $0100, r18    ;W 00 0100
XXXX 0100 ZZ 1 1 XXXX XX             STS $0100, r18    ;W 00 0100
00CA EE8D ZZ 1 1 XXXX XX             LDI r24, 237
00CB E79F ZZ 1 1 XXXX XX             LDI r25, 127
00CC 9681 ZZ 1 1 XXXX XX             ADIW r25:r24, 33  ; 127*256 + 237 + 33 = 128*256 + 14
XXXX 9681 ZZ 1 1 XXXX XX             ADIW r25:r24, 33  ; 127*256 + 237 + 33 = 128*256 + 14
00CD B72F ZZ 1 1 XXXX XX             IN  r18, $3F      ; Read the Status register
00CE 9390 ZZ 1 1 XXXX XX             STS $0101, r25    ;W 80 0101
00CF 0101 ZZ 1 0 0101 80             STS $0101, r25    ;W 80 0101
XXXX 0101 ZZ 1 1 XXXX XX             STS $0101, r25    ;W 80 0101
00D0 9380 ZZ 1 1 XXXX XX             STS $0100, r24    ;W 0E 0100
00D1 0100 ZZ 1 0 0100 0E             STS $0100, r24    ;W 0E 0100
XXXX 0100 ZZ 1 1 XXXX XX             STS $0100, r24    ;W 0E 0100
00D2 9320 ZZ 1 1 XXXX XX             STS $0100, r18    ;W 0C 0100
00D3 0100 ZZ 1 0 0100 0C             STS $0100, r18    ;W 0C 0100
XXXX 0100 ZZ 1 1 XXXX XX             STS $0100, r18    ;W 0C 0100
00D4 EC83 ZZ 1 1 XXXX XX             LDI r24, 195
00D5 EF9F ZZ 1 1 XXXX XX             LDI r25, 255
00D6 96CF ZZ 1 1 XXXX XX             ADIW r25:r24, 63  ; 255*256 + 195 + 63 = 1*65536 + 0*256 + 2
XXXX 96CF ZZ 1 1 XXXX XX             ADIW r25:r24, 63  ; 255*256 + 195 + 63 = 1*65536 + 0*256 + 2
00D7 B72F ZZ 1 1 XXXX XX             IN  r18, $3F      ; Read the Status register
00D8 9390 ZZ 1 1 XXXX XX             STS $0101, r25    ;W 00 0101
00D9 0101 ZZ 1 0 0101 00             STS $0101, r25    ;W 00 0101
XXXX 0101 ZZ 1 1 XXXX XX             STS $0101, r25    ;W 00 0101
00DA 9380 ZZ 1 1 XXXX XX             STS $0100, r24    ;W 02 0100
00DB 0100 ZZ 1 0 0100 02             STS $0100, r24    ;W 02 0100
XXXX 0100 ZZ 1 1 XXXX XX             STS $0100, r24    ;W 02 0100
00DC 9320 ZZ 1 1 XXXX XX             STS $0100, r18    ;W 01 0100
00DD 0100 ZZ 1 0 0100 01             STS $0100, r18    ;W 01 0100
XXXX 0100 ZZ 1 1 XXXX XX             STS $0100, r18    ;W 01 0100
00DE EC8E ZZ 1 1 XXXX XX             LDI r24, 206
00DF EF9F ZZ 1 1 XXXX XX             LDI r25, 255
00E0 96C2 ZZ 1 1 XXXX XX             ADIW r25:r24, 50  ; 255*256 + 206 + 50 = 1*65536 + 0*256 + 0
XXXX 96C2 ZZ 1 1 XXXX XX             ADIW r25:r24, 50  ; 255*256 + 206 + 50 = 1*65536 + 0*256 + 0
00E1 B72F ZZ 1 1 XXXX XX             IN  r18, $3F      ; Read the Status register
00E2 9390 ZZ 1 1 XXXX XX             STS $0101, r25    ;W 00 0101
00E3 0101 ZZ 1 0 0101 00             STS $0101, r25    ;W 00 0101
XXXX 0101 ZZ 1 1 XXXX XX             STS $0101, r25    ;W 00 0101
00E4 9380 ZZ 1 1 XXXX XX             STS $0100, r24    ;W 00 0100
00E5 0100 ZZ 1 0 0100 00             STS $0100, r24    ;W 00 0100
XXXX 0100 ZZ 1 1 XXXX XX             STS $0100, r24    ;W 00 0100
00E6 9320 ZZ 1 1 XXXX XX             STS $0100, r18    ;W 03 0100
00E7 0100 ZZ 1 0 0100 03             STS $0100, r18    ;W 03 0100
XXXX 0100 ZZ 1 1 XXXX XX             STS $0100, r18    ;W 03 0100
00E8 9488 ZZ 1 1 XXXX XX         start_test_and:
00E9 9498 ZZ 1 1 XXXX XX         start_test_and:
00EA 94A8 ZZ 1 1 XXXX XX         start_test_and:
00EB 94B8 ZZ 1 1 XXXX XX         start_test_and:
00EC 94C8 ZZ 1 1 XXXX XX         start_test_and:
00ED 94D8 ZZ 1 1 XXXX XX         start_test_and:
00EE 94E8 ZZ 1 1 XXXX XX         start_test_and:
00EF 94F8 ZZ 1 1 XXXX XX             CLR_SREG
00F0 EF41 ZZ 1 1 XXXX XX             LDI r20, $F1
00F1 E050 ZZ 1 1 XXXX XX             LDI r21, $00
00F2 2354 ZZ 1 1 XXXX XX             AND r21, r20
00F3 B72F ZZ 1 1 XXXX XX             IN  r18, $3F      ; Read the Status register
00F4 9340 ZZ 1 1 XXXX XX             STS $0100, r20    ;W F1 0100
00F5 0100 ZZ 1 0 0100 F1             STS $0100, r20    ;W F1 0100
XXXX 0100 ZZ 1 1 XXXX XX             STS $0100, r20    ;W F1 0100
00F6 9350 ZZ 1 1 XXXX XX             STS $0100, r21    ;W 00 0100
00F7 0100 ZZ 1 0 0100 00             STS $0100, r21    ;W 00 0100
XXXX 0100 ZZ 1 1 XXXX XX             STS $0100, r21    ;W 00 0100
00F8 9320 ZZ 1 1 XXXX XX             STS $0100, r18    ;W 02 0100
00F9 0100 ZZ 1 0 0100 02             STS $0100, r18    ;W 02 0100
XXXX 0100 ZZ 1 1 XXXX XX             STS $0100, r18    ;W 02 0100
00FA 9438 ZZ 1 1 XXXX XX             BSET SREG_V       ; AND should clear V flag always
00FB EA49 ZZ 1 1 XXXX XX             LDI r20, $A9
00FC E456 ZZ 1 1 XXXX XX             LDI r21, $46
00FD 2354 ZZ 1 1 XXXX XX             AND r21, r20
00FE B72F ZZ 1 1 XXXX XX             IN  r18, $3F      ; Read the Status register
00FF 9340 ZZ 1 1 XXXX XX             STS $0100, r20    ;W A9 0100
0100 0100 ZZ 1 0 0100 A9             STS $0100, r20    ;W A9 0100
XXXX 0100 ZZ 1 1 XXXX XX             STS $0100, r20    ;W A9 0100
0101 9350 ZZ 1 1 XXXX XX             STS $0100, r21    ;W 00 0100
0102 0100 ZZ 1 0 0100 00             STS $0100, r21    ;W 00 0100
XXXX 0100 ZZ 1 1 XXXX XX             STS $0100, r21    ;W 00 0100
0103 9320 ZZ 1 1 XXXX XX             STS $0100, r18    ;W 02 0100
0104 0100 ZZ 1 0 0100 02             STS $0100, r18    ;W 02 0100
XXXX 0100 ZZ 1 1 XXXX XX             STS $0100, r18    ;W 02 0100
0105 9438 ZZ 1 1 XXXX XX             BSET SREG_V       ; AND should clear V flag always
0106 EF49 ZZ 1 1 XXXX XX             LDI r20, $F9
0107 E855 ZZ 1 1 XXXX XX             LDI r21, $85
0108 2354 ZZ 1 1 XXXX XX             AND r21, r20
0109 B72F ZZ 1 1 XXXX XX             IN  r18, $3F      ; Read the Status register
010A 9340 ZZ 1 1 XXXX XX             STS $0100, r20    ;W F9 0100
010B 0100 ZZ 1 0 0100 F9             STS $0100, r20    ;W F9 0100
XXXX 0100 ZZ 1 1 XXXX XX             STS $0100, r20    ;W F9 0100
010C 9350 ZZ 1 1 XXXX XX             STS $0100, r21    ;W 81 0100
010D 0100 ZZ 1 0 0100 81             STS $0100, r21    ;W 81 0100
XXXX 0100 ZZ 1 1 XXXX XX             STS $0100, r21    ;W 81 0100
010E 9320 ZZ 1 1 XXXX XX             STS $0100, r18    ;W 14 0100
010F 0100 ZZ 1 0 0100 14             STS $0100, r18    ;W 14 0100
XXXX 0100 ZZ 1 1 XXXX XX             STS $0100, r18    ;W 14 0100
0110 9488 ZZ 1 1 XXXX XX         start_test_andi:
0111 9498 ZZ 1 1 XXXX XX         start_test_andi:
0112 94A8 ZZ 1 1 XXXX XX         start_test_andi:
0113 94B8 ZZ 1 1 XXXX XX         start_test_andi:
0114 94C8 ZZ 1 1 XXXX XX         start_test_andi:
0115 94D8 ZZ 1 1 XXXX XX         start_test_andi:
0116 94E8 ZZ 1 1 XXXX XX         start_test_andi:
0117 94F8 ZZ 1 1 XXXX XX             CLR_SREG
0118 E050 ZZ 1 1 XXXX XX             LDI r21, $00
0119 7F51 ZZ 1 1 XXXX XX             ANDI r21, $F1
011A B72F ZZ 1 1 XXXX XX             IN  r18, $3F      ; Read the Status register
011B 9350 ZZ 1 1 XXXX XX             STS $0100, r21    ;W 00 0100
011C 0100 ZZ 1 0 0100 00             STS $0100, r21    ;W 00 0100
XXXX 0100 ZZ 1 1 XXXX XX             STS $0100, r21    ;W 00 0100
011D 9320 ZZ 1 1 XXXX XX             STS $0100, r18    ;W 02 0100
011E 0100 ZZ 1 0 0100 02             STS $0100, r18    ;W 02 0100
XXXX 0100 ZZ 1 1 XXXX XX             STS $0100, r18    ;W 02 0100
011F 9438 ZZ 1 1 XXXX XX             BSET SREG_V       ; AND should clear V flag always
0120 E456 ZZ 1 1 XXXX XX             LDI r21, $46
0121 7A59 ZZ 1 1 XXXX XX             ANDI r21, $A9
0122 B72F ZZ 1 1 XXXX XX             IN  r18, $3F      ; Read the Status register
0123 9350 ZZ 1 1 XXXX XX             STS $0100, r21    ;W 00 0100
0124 0100 ZZ 1 0 0100 00             STS $0100, r21    ;W 00 0100
XXXX 0100 ZZ 1 1 XXXX XX             STS $0100, r21    ;W 00 0100
0125 9320 ZZ 1 1 XXXX XX             STS $0100, r18    ;W 02 0100
0126 0100 ZZ 1 0 0100 02             STS $0100, r18    ;W 02 0100
XXXX 0100 ZZ 1 1 XXXX XX             STS $0100, r18    ;W 02 0100
0127 9438 ZZ 1 1 XXXX XX             BSET SREG_V       ; AND should clear V flag always
0128 E855 ZZ 1 1 XXXX XX             LDI r21, $85
0129 7F59 ZZ 1 1 XXXX XX             ANDI r21, $F9
012A B72F ZZ 1 1 XXXX XX             IN  r18, $3F      ; Read the Status register
012B 9350 ZZ 1 1 XXXX XX             STS $0100, r21    ;W 81 0100
012C 0100 ZZ 1 0 0100 81             STS $0100, r21    ;W 81 0100
XXXX 0100 ZZ 1 1 XXXX XX             STS $0100, r21    ;W 81 0100
012D 9320 ZZ 1 1 XXXX XX             STS $0100, r18    ;W 14 0100
012E 0100 ZZ 1 0 0100 14             STS $0100, r18    ;W 14 0100
XXXX 0100 ZZ 1 1 XXXX XX             STS $0100, r18    ;W 14 0100
012F 9488 ZZ 1 1 XXXX XX         start_test_asr:
0130 9498 ZZ 1 1 XXXX XX         start_test_asr:
0131 94A8 ZZ 1 1 XXXX XX         start_test_asr:
0132 94B8 ZZ 1 1 XXXX XX         start_test_asr:
0133 94C8 ZZ 1 1 XXXX XX         start_test_asr:
0134 94D8 ZZ 1 1 XXXX XX         start_test_asr:
0135 94E8 ZZ 1 1 XXXX XX         start_test_asr:
0136 94F8 ZZ 1 1 XXXX XX             CLR_SREG
0137 E60A ZZ 1 1 XXXX XX             LDI r16, $6A
0138 2E30 ZZ 1 1 XXXX XX             MOV r3, r16
0139 9435 ZZ 1 1 XXXX XX             ASR r3
013A B72F ZZ 1 1 XXXX XX             IN  r18, $3F      ; Read the Status register
013B 9230 ZZ 1 1 XXXX XX             STS $0100, r3    ;W 35 0100
013C 0100 ZZ 1 0 0100 35             STS $0100, r3    ;W 35 0100
XXXX 0100 ZZ 1 1 XXXX XX             STS $0100, r3    ;W 35 0100
013D 9320 ZZ 1 1 XXXX XX             STS $0100, r18    ;W 00 0100
013E 0100 ZZ 1 0 0100 00             STS $0100, r18    ;W 00 0100
XXXX 0100 ZZ 1 1 XXXX XX             STS $0100, r18    ;W 00 0100
013F 9435 ZZ 1 1 XXXX XX             ASR r3
0140 B72F ZZ 1 1 XXXX XX             IN  r18, $3F      ; Read the Status register
0141 9230 ZZ 1 1 XXXX XX             STS $0100, r3    ;W 1A 0100
0142 0100 ZZ 1 0 0100 1A             STS $0100, r3    ;W 1A 0100
XXXX 0100 ZZ 1 1 XXXX XX             STS $0100, r3    ;W 1A 0100
0143 9320 ZZ 1 1 XXXX XX             STS $0100, r18    ;W 19 0100
0144 0100 ZZ 1 0 0100 19             STS $0100, r18    ;W 19 0100
XXXX 0100 ZZ 1 1 XXXX XX             STS $0100, r18    ;W 19 0100
0145 9435 ZZ 1 1 XXXX XX             ASR r3
0146 B72F ZZ 1 1 XXXX XX             IN  r18, $3F      ; Read the Status register
0147 9230 ZZ 1 1 XXXX XX             STS $0100, r3    ;W 0D 0100
0148 0100 ZZ 1 0 0100 0D             STS $0100, r3    ;W 0D 0100
XXXX 0100 ZZ 1 1 XXXX XX             STS $0100, r3    ;W 0D 0100
0149 9320 ZZ 1 1 XXXX XX             STS $0100, r18    ;W 00 0100
014A 0100 ZZ 1 0 0100 00             STS $0100, r18    ;W 00 0100
XXXX 0100 ZZ 1 1 XXXX XX             STS $0100, r18    ;W 00 0100
014B 9435 ZZ 1 1 XXXX XX             ASR r3
014C B72F ZZ 1 1 XXXX XX             IN  r18, $3F      ; Read the Status register
014D 9230 ZZ 1 1 XXXX XX             STS $0100, r3    ;W 06 0100
014E 0100 ZZ 1 0 0100 06             STS $0100, r3    ;W 06 0100
XXXX 0100 ZZ 1 1 XXXX XX             STS $0100, r3    ;W 06 0100
014F 9320 ZZ 1 1 XXXX XX             STS $0100, r18    ;W 19 0100
0150 0100 ZZ 1 0 0100 19             STS $0100, r18    ;W 19 0100
XXXX 0100 ZZ 1 1 XXXX XX             STS $0100, r18    ;W 19 0100
0151 9435 ZZ 1 1 XXXX XX             ASR r3
0152 9435 ZZ 1 1 XXXX XX             ASR r3
0153 B72F ZZ 1 1 XXXX XX             IN  r18, $3F      ; Read the Status register
0154 9230 ZZ 1 1 XXXX XX             STS $0100, r3    ;W 01 0100
0155 0100 ZZ 1 0 0100 01             STS $0100, r3    ;W 01 0100
XXXX 0100 ZZ 1 1 XXXX XX             STS $0100, r3    ;W 01 0100
0156 9320 ZZ 1 1 XXXX XX             STS $0100, r18    ;W 19 0100
0157 0100 ZZ 1 0 0100 19             STS $0100, r18    ;W 19 0100
XXXX 0100 ZZ 1 1 XXXX XX             STS $0100, r18    ;W 19 0100
0158 9435 ZZ 1 1 XXXX XX             ASR r3
0159 B72F ZZ 1 1 XXXX XX             IN  r18, $3F      ; Read the Status register
015A 9230 ZZ 1 1 XXXX XX             STS $0100, r3    ;W 00 0100
015B 0100 ZZ 1 0 0100 00             STS $0100, r3    ;W 00 0100
XXXX 0100 ZZ 1 1 XXXX XX             STS $0100, r3    ;W 00 0100
015C 9320 ZZ 1 1 XXXX XX             STS $0100, r18    ;W 1B 0100
015D 0100 ZZ 1 0 0100 1B             STS $0100, r18    ;W 1B 0100
XXXX 0100 ZZ 1 1 XXXX XX             STS $0100, r18    ;W 1B 0100
015E 9435 ZZ 1 1 XXXX XX             ASR r3
015F B72F ZZ 1 1 XXXX XX             IN  r18, $3F      ; Read the Status register
0160 9230 ZZ 1 1 XXXX XX             STS $0100, r3    ;W 00 0100
0161 0100 ZZ 1 0 0100 00             STS $0100, r3    ;W 00 0100
XXXX 0100 ZZ 1 1 XXXX XX             STS $0100, r3    ;W 00 0100
0162 9320 ZZ 1 1 XXXX XX             STS $0100, r18    ;W 02 0100
0163 0100 ZZ 1 0 0100 02             STS $0100, r18    ;W 02 0100
XXXX 0100 ZZ 1 1 XXXX XX             STS $0100, r18    ;W 02 0100
0164 E804 ZZ 1 1 XXXX XX             LDI r16, $84
0165 2E30 ZZ 1 1 XXXX XX             MOV r3, r16
0166 9435 ZZ 1 1 XXXX XX             ASR r3
0167 B72F ZZ 1 1 XXXX XX             IN  r18, $3F      ; Read the Status register
0168 9230 ZZ 1 1 XXXX XX             STS $0100, r3    ;W C2 0100
0169 0100 ZZ 1 0 0100 C2             STS $0100, r3    ;W C2 0100
XXXX 0100 ZZ 1 1 XXXX XX             STS $0100, r3    ;W C2 0100
016A 9320 ZZ 1 1 XXXX XX             STS $0100, r18    ;W 0C 0100
016B 0100 ZZ 1 0 0100 0C             STS $0100, r18    ;W 0C 0100
XXXX 0100 ZZ 1 1 XXXX XX             STS $0100, r18    ;W 0C 0100
016C 9435 ZZ 1 1 XXXX XX             ASR r3
016D B72F ZZ 1 1 XXXX XX             IN  r18, $3F      ; Read the Status register
016E 9230 ZZ 1 1 XXXX XX             STS $0100, r3    ;W E1 0100
016F 0100 ZZ 1 0 0100 E1             STS $0100, r3    ;W E1 0100
XXXX 0100 ZZ 1 1 XXXX XX             STS $0100, r3    ;W E1 0100
0170 9320 ZZ 1 1 XXXX XX             STS $0100, r18    ;W 0C 0100
0171 0100 ZZ 1 0 0100 0C             STS $0100, r18    ;W 0C 0100
XXXX 0100 ZZ 1 1 XXXX XX             STS $0100, r18    ;W 0C 0100
0172 9435 ZZ 1 1 XXXX XX             ASR r3
0173 B72F ZZ 1 1 XXXX XX             IN  r18, $3F      ; Read the Status register
0174 9230 ZZ 1 1 XXXX XX             STS $0100, r3    ;W F0 0100
0175 0100 ZZ 1 0 0100 F0             STS $0100, r3    ;W F0 0100
XXXX 0100 ZZ 1 1 XXXX XX             STS $0100, r3    ;W F0 0100
0176 9320 ZZ 1 1 XXXX XX             STS $0100, r18    ;W 15 0100
0177 0100 ZZ 1 0 0100 15             STS $0100, r18    ;W 15 0100
XXXX 0100 ZZ 1 1 XXXX XX             STS $0100, r18    ;W 15 0100
0178 9435 ZZ 1 1 XXXX XX             ASR r3
0179 B72F ZZ 1 1 XXXX XX             IN  r18, $3F      ; Read the Status register
017A 9230 ZZ 1 1 XXXX XX             STS $0100, r3     ;W F8 0100
017B 0100 ZZ 1 0 0100 F8             STS $0100, r3     ;W F8 0100
XXXX 0100 ZZ 1 1 XXXX XX             STS $0100, r3     ;W F8 0100
017C 9320 ZZ 1 1 XXXX XX             STS $0100, r18    ;W 0C 0100
017D 0100 ZZ 1 0 0100 0C             STS $0100, r18    ;W 0C 0100
XXXX 0100 ZZ 1 1 XXXX XX             STS $0100, r18    ;W 0C 0100
017E 9435 ZZ 1 1 XXXX XX             ASR r3
017F 9435 ZZ 1 1 XXXX XX             ASR r3
0180 B72F ZZ 1 1 XXXX XX             IN  r18, $3F      ; Read the Status register
0181 9230 ZZ 1 1 XXXX XX             STS $0100, r3    ;W FE 0100
0182 0100 ZZ 1 0 0100 FE             STS $0100, r3    ;W FE 0100
XXXX 0100 ZZ 1 1 XXXX XX             STS $0100, r3    ;W FE 0100
0183 9320 ZZ 1 1 XXXX XX             STS $0100, r18    ;W 0C 0100
0184 0100 ZZ 1 0 0100 0C             STS $0100, r18    ;W 0C 0100
XXXX 0100 ZZ 1 1 XXXX XX             STS $0100, r18    ;W 0C 0100
0185 9435 ZZ 1 1 XXXX XX             ASR r3
0186 B72F ZZ 1 1 XXXX XX             IN  r18, $3F      ; Read the Status register
0187 9230 ZZ 1 1 XXXX XX             STS $0100, r3    ;W FF 0100
0188 0100 ZZ 1 0 0100 FF             STS $0100, r3    ;W FF 0100
XXXX 0100 ZZ 1 1 XXXX XX             STS $0100, r3    ;W FF 0100
0189 9320 ZZ 1 1 XXXX XX             STS $0100, r18    ;W 0C 0100
018A 0100 ZZ 1 0 0100 0C             STS $0100, r18    ;W 0C 0100
XXXX 0100 ZZ 1 1 XXXX XX             STS $0100, r18    ;W 0C 0100
018B 9435 ZZ 1 1 XXXX XX             ASR r3
018C B72F ZZ 1 1 XXXX XX             IN  r18, $3F      ; Read the Status register
018D 9230 ZZ 1 1 XXXX XX             STS $0100, r3    ;W FF 0100
018E 0100 ZZ 1 0 0100 FF             STS $0100, r3    ;W FF 0100
XXXX 0100 ZZ 1 1 XXXX XX             STS $0100, r3    ;W FF 0100
018F 9320 ZZ 1 1 XXXX XX             STS $0100, r18    ;W 15 0100
0190 0100 ZZ 1 0 0100 15             STS $0100, r18    ;W 15 0100
XXXX 0100 ZZ 1 1 XXXX XX             STS $0100, r18    ;W 15 0100
0191 9488 ZZ 1 1 XXXX XX         start_bclr:
0192 9498 ZZ 1 1 XXXX XX         start_bclr:
0193 94A8 ZZ 1 1 XXXX XX         start_bclr:
0194 94B8 ZZ 1 1 XXXX XX         start_bclr:
0195 94C8 ZZ 1 1 XXXX XX         start_bclr:
0196 94D8 ZZ 1 1 XXXX XX         start_bclr:
0197 94E8 ZZ 1 1 XXXX XX         start_bclr:
0198 94F8 ZZ 1 1 XXXX XX             CLR_SREG
0199 EF0F ZZ 1 1 XXXX XX             LDI r16, $FF
019A BF0F ZZ 1 1 XXXX XX             OUT SREG_ADDR, r16
019B 94B8 ZZ 1 1 XXXX XX             BCLR SREG_V
019C B72F ZZ 1 1 XXXX XX             IN  r18, SREG_ADDR  ; Read the Status register
019D 9320 ZZ 1 1 XXXX XX             STS $0100, r18      ;W F7 0100
019E 0100 ZZ 1 0 0100 F7             STS $0100, r18      ;W F7 0100
XXXX 0100 ZZ 1 1 XXXX XX             STS $0100, r18      ;W F7 0100
019F 94D8 ZZ 1 1 XXXX XX             BCLR SREG_H
01A0 B72F ZZ 1 1 XXXX XX             IN  r18, SREG_ADDR  ; Read the Status register
01A1 9320 ZZ 1 1 XXXX XX             STS $0100, r18      ;W D7 0100
01A2 0100 ZZ 1 0 0100 D7             STS $0100, r18      ;W D7 0100
XXXX 0100 ZZ 1 1 XXXX XX             STS $0100, r18      ;W D7 0100
01A3 94E8 ZZ 1 1 XXXX XX             BCLR SREG_T
01A4 B72F ZZ 1 1 XXXX XX             IN  r18, SREG_ADDR  ; Read the Status register
01A5 9320 ZZ 1 1 XXXX XX             STS $0100, r18      ;W 97 0100
01A6 0100 ZZ 1 0 0100 97             STS $0100, r18      ;W 97 0100
XXXX 0100 ZZ 1 1 XXXX XX             STS $0100, r18      ;W 97 0100
01A7 9498 ZZ 1 1 XXXX XX             BCLR SREG_Z
01A8 B72F ZZ 1 1 XXXX XX             IN  r18, SREG_ADDR  ; Read the Status register
01A9 9320 ZZ 1 1 XXXX XX             STS $0100, r18      ;W 95 0100
01AA 0100 ZZ 1 0 0100 95             STS $0100, r18      ;W 95 0100
XXXX 0100 ZZ 1 1 XXXX XX             STS $0100, r18      ;W 95 0100
01AB 94A8 ZZ 1 1 XXXX XX             BCLR SREG_N
01AC B72F ZZ 1 1 XXXX XX             IN  r18, SREG_ADDR  ; Read the Status register
01AD 9320 ZZ 1 1 XXXX XX             STS $0100, r18      ;W 91 0100
01AE 0100 ZZ 1 0 0100 91             STS $0100, r18      ;W 91 0100
XXXX 0100 ZZ 1 1 XXXX XX             STS $0100, r18      ;W 91 0100
01AF 9488 ZZ 1 1 XXXX XX             BCLR SREG_C
01B0 B72F ZZ 1 1 XXXX XX             IN  r18, SREG_ADDR  ; Read the Status register
01B1 9320 ZZ 1 1 XXXX XX             STS $0100, r18      ;W 90 0100
01B2 0100 ZZ 1 0 0100 90             STS $0100, r18      ;W 90 0100
XXXX 0100 ZZ 1 1 XXXX XX             STS $0100, r18      ;W 90 0100
01B3 94F8 ZZ 1 1 XXXX XX             BCLR SREG_I
01B4 B72F ZZ 1 1 XXXX XX             IN  r18, SREG_ADDR  ; Read the Status register
01B5 9320 ZZ 1 1 XXXX XX             STS $0100, r18      ;W 10 0100
01B6 0100 ZZ 1 0 0100 10             STS $0100, r18      ;W 10 0100
XXXX 0100 ZZ 1 1 XXXX XX             STS $0100, r18      ;W 10 0100
01B7 94C8 ZZ 1 1 XXXX XX             BCLR SREG_S
01B8 B72F ZZ 1 1 XXXX XX             IN  r18, SREG_ADDR  ; Read the Status register
01B9 9320 ZZ 1 1 XXXX XX             STS $0100, r18      ;W 00 0100
01BA 0100 ZZ 1 0 0100 00             STS $0100, r18      ;W 00 0100
XXXX 0100 ZZ 1 1 XXXX XX             STS $0100, r18      ;W 00 0100
01BB 9488 ZZ 1 1 XXXX XX         start_bld:
01BC 9498 ZZ 1 1 XXXX XX         start_bld:
01BD 94A8 ZZ 1 1 XXXX XX         start_bld:
01BE 94B8 ZZ 1 1 XXXX XX         start_bld:
01BF 94C8 ZZ 1 1 XXXX XX         start_bld:
01C0 94D8 ZZ 1 1 XXXX XX         start_bld:
01C1 94E8 ZZ 1 1 XXXX XX         start_bld:
01C2 94F8 ZZ 1 1 XXXX XX             CLR_SREG
01C3 E010 ZZ 1 1 XXXX XX             LDI r17, $00
01C4 94E8 ZZ 1 1 XXXX XX             BCLR SREG_T
01C5 F910 ZZ 1 1 XXXX XX             BLD r17, 0          ; Write 0 to target bit
01C6 9310 ZZ 1 1 XXXX XX             STS $0100, r17      ;W 00 0100
01C7 0100 ZZ 1 0 0100 00             STS $0100, r17      ;W 00 0100
XXXX 0100 ZZ 1 1 XXXX XX             STS $0100, r17      ;W 00 0100
01C8 9468 ZZ 1 1 XXXX XX             BSET SREG_T         ; Set the T bit
01C9 F910 ZZ 1 1 XXXX XX             BLD r17, 0          ; Write 1 to target bit
01CA 9310 ZZ 1 1 XXXX XX             STS $0100, r17      ;W 01 0100
01CB 0100 ZZ 1 0 0100 01             STS $0100, r17      ;W 01 0100
XXXX 0100 ZZ 1 1 XXXX XX             STS $0100, r17      ;W 01 0100
01CC F910 ZZ 1 1 XXXX XX             BLD r17, 0          ; Write 1 again to make sure no toggle
01CD 9310 ZZ 1 1 XXXX XX             STS $0100, r17      ;W 01 0100
01CE 0100 ZZ 1 0 0100 01             STS $0100, r17      ;W 01 0100
XXXX 0100 ZZ 1 1 XXXX XX             STS $0100, r17      ;W 01 0100
01CF E010 ZZ 1 1 XXXX XX             LDI r17, $00
01D0 94E8 ZZ 1 1 XXXX XX             BCLR SREG_T
01D1 F911 ZZ 1 1 XXXX XX             BLD r17, 1          ; Write 0 to target bit
01D2 9310 ZZ 1 1 XXXX XX             STS $0100, r17      ;W 00 0100
01D3 0100 ZZ 1 0 0100 00             STS $0100, r17      ;W 00 0100
XXXX 0100 ZZ 1 1 XXXX XX             STS $0100, r17      ;W 00 0100
01D4 9468 ZZ 1 1 XXXX XX             BSET SREG_T         ; Set the T bit
01D5 F911 ZZ 1 1 XXXX XX             BLD r17, 1          ; Write 1 to target bit
01D6 9310 ZZ 1 1 XXXX XX             STS $0100, r17      ;W 02 0100
01D7 0100 ZZ 1 0 0100 02             STS $0100, r17      ;W 02 0100
XXXX 0100 ZZ 1 1 XXXX XX             STS $0100, r17      ;W 02 0100
01D8 F911 ZZ 1 1 XXXX XX             BLD r17, 1          ; Write 1 again to make sure no toggle
01D9 9310 ZZ 1 1 XXXX XX             STS $0100, r17      ;W 02 0100
01DA 0100 ZZ 1 0 0100 02             STS $0100, r17      ;W 02 0100
XXXX 0100 ZZ 1 1 XXXX XX             STS $0100, r17      ;W 02 0100
01DB E010 ZZ 1 1 XXXX XX             LDI r17, $00
01DC 94E8 ZZ 1 1 XXXX XX             BCLR SREG_T
01DD F912 ZZ 1 1 XXXX XX             BLD r17, 2          ; Write 0 to target bit
01DE 9310 ZZ 1 1 XXXX XX             STS $0100, r17      ;W 00 0100
01DF 0100 ZZ 1 0 0100 00             STS $0100, r17      ;W 00 0100
XXXX 0100 ZZ 1 1 XXXX XX             STS $0100, r17      ;W 00 0100
01E0 9468 ZZ 1 1 XXXX XX             BSET SREG_T         ; Set the T bit
01E1 F912 ZZ 1 1 XXXX XX             BLD r17, 2          ; Write 1 to target bit
01E2 9310 ZZ 1 1 XXXX XX             STS $0100, r17      ;W 04 0100
01E3 0100 ZZ 1 0 0100 04             STS $0100, r17      ;W 04 0100
XXXX 0100 ZZ 1 1 XXXX XX             STS $0100, r17      ;W 04 0100
01E4 F912 ZZ 1 1 XXXX XX             BLD r17, 2          ; Write 1 again to make sure no toggle
01E5 9310 ZZ 1 1 XXXX XX             STS $0100, r17      ;W 04 0100
01E6 0100 ZZ 1 0 0100 04             STS $0100, r17      ;W 04 0100
XXXX 0100 ZZ 1 1 XXXX XX             STS $0100, r17      ;W 04 0100
01E7 E010 ZZ 1 1 XXXX XX             LDI r17, $00
01E8 94E8 ZZ 1 1 XXXX XX             BCLR SREG_T
01E9 F913 ZZ 1 1 XXXX XX             BLD r17, 3          ; Write 0 to target bit
01EA 9310 ZZ 1 1 XXXX XX             STS $0100, r17      ;W 00 0100
01EB 0100 ZZ 1 0 0100 00             STS $0100, r17      ;W 00 0100
XXXX 0100 ZZ 1 1 XXXX XX             STS $0100, r17      ;W 00 0100
01EC 9468 ZZ 1 1 XXXX XX             BSET SREG_T         ; Set the T bit
01ED F913 ZZ 1 1 XXXX XX             BLD r17, 3          ; Write 1 to target bit
01EE 9310 ZZ 1 1 XXXX XX             STS $0100, r17      ;W 08 0100
01EF 0100 ZZ 1 0 0100 08             STS $0100, r17      ;W 08 0100
XXXX 0100 ZZ 1 1 XXXX XX             STS $0100, r17      ;W 08 0100
01F0 F913 ZZ 1 1 XXXX XX             BLD r17, 3          ; Write 1 again to make sure no toggle
01F1 9310 ZZ 1 1 XXXX XX             STS $0100, r17      ;W 08 0100
01F2 0100 ZZ 1 0 0100 08             STS $0100, r17      ;W 08 0100
XXXX 0100 ZZ 1 1 XXXX XX             STS $0100, r17      ;W 08 0100
01F3 E010 ZZ 1 1 XXXX XX             LDI r17, $00
01F4 94E8 ZZ 1 1 XXXX XX             BCLR SREG_T
01F5 F914 ZZ 1 1 XXXX XX             BLD r17, 4          ; Write 0 to target bit
01F6 9310 ZZ 1 1 XXXX XX             STS $0100, r17      ;W 00 0100
01F7 0100 ZZ 1 0 0100 00             STS $0100, r17      ;W 00 0100
XXXX 0100 ZZ 1 1 XXXX XX             STS $0100, r17      ;W 00 0100
01F8 9468 ZZ 1 1 XXXX XX             BSET SREG_T         ; Set the T bit
01F9 F914 ZZ 1 1 XXXX XX             BLD r17, 4          ; Write 1 to target bit
01FA 9310 ZZ 1 1 XXXX XX             STS $0100, r17      ;W 10 0100
01FB 0100 ZZ 1 0 0100 10             STS $0100, r17      ;W 10 0100
XXXX 0100 ZZ 1 1 XXXX XX             STS $0100, r17      ;W 10 0100
01FC F914 ZZ 1 1 XXXX XX             BLD r17, 4          ; Write 1 again to make sure no toggle
01FD 9310 ZZ 1 1 XXXX XX             STS $0100, r17      ;W 10 0100
01FE 0100 ZZ 1 0 0100 10             STS $0100, r17      ;W 10 0100
XXXX 0100 ZZ 1 1 XXXX XX             STS $0100, r17      ;W 10 0100
01FF E010 ZZ 1 1 XXXX XX             LDI r17, $00
0200 94E8 ZZ 1 1 XXXX XX             BCLR SREG_T
0201 F915 ZZ 1 1 XXXX XX             BLD r17, 5          ; Write 0 to target bit
0202 9310 ZZ 1 1 XXXX XX             STS $0100, r17      ;W 00 0100
0203 0100 ZZ 1 0 0100 00             STS $0100, r17      ;W 00 0100
XXXX 0100 ZZ 1 1 XXXX XX             STS $0100, r17      ;W 00 0100
0204 9468 ZZ 1 1 XXXX XX             BSET SREG_T         ; Set the T bit
0205 F915 ZZ 1 1 XXXX XX             BLD r17, 5          ; Write 1 to target bit
0206 9310 ZZ 1 1 XXXX XX             STS $0100, r17      ;W 20 0100
0207 0100 ZZ 1 0 0100 20             STS $0100, r17      ;W 20 0100
XXXX 0100 ZZ 1 1 XXXX XX             STS $0100, r17      ;W 20 0100
0208 F915 ZZ 1 1 XXXX XX             BLD r17, 5          ; Write 1 again to make sure no toggle
0209 9310 ZZ 1 1 XXXX XX             STS $0100, r17      ;W 20 0100
020A 0100 ZZ 1 0 0100 20             STS $0100, r17      ;W 20 0100
XXXX 0100 ZZ 1 1 XXXX XX             STS $0100, r17      ;W 20 0100
020B E010 ZZ 1 1 XXXX XX             LDI r17, $00
020C 94E8 ZZ 1 1 XXXX XX             BCLR SREG_T
020D F916 ZZ 1 1 XXXX XX             BLD r17, 6          ; Write 0 to target bit
020E 9310 ZZ 1 1 XXXX XX             STS $0100, r17      ;W 00 0100
020F 0100 ZZ 1 0 0100 00             STS $0100, r17      ;W 00 0100
XXXX 0100 ZZ 1 1 XXXX XX             STS $0100, r17      ;W 00 0100
0210 9468 ZZ 1 1 XXXX XX             BSET SREG_T         ; Set the T bit
0211 F916 ZZ 1 1 XXXX XX             BLD r17, 6          ; Write 1 to target bit
0212 9310 ZZ 1 1 XXXX XX             STS $0100, r17      ;W 40 0100
0213 0100 ZZ 1 0 0100 40             STS $0100, r17      ;W 40 0100
XXXX 0100 ZZ 1 1 XXXX XX             STS $0100, r17      ;W 40 0100
0214 F916 ZZ 1 1 XXXX XX             BLD r17, 6          ; Write 1 again to make sure no toggle
0215 9310 ZZ 1 1 XXXX XX             STS $0100, r17      ;W 40 0100
0216 0100 ZZ 1 0 0100 40             STS $0100, r17      ;W 40 0100
XXXX 0100 ZZ 1 1 XXXX XX             STS $0100, r17      ;W 40 0100
0217 E010 ZZ 1 1 XXXX XX             LDI r17, $00
0218 94E8 ZZ 1 1 XXXX XX             BCLR SREG_T
0219 F917 ZZ 1 1 XXXX XX             BLD r17, 7          ; Write 0 to target bit
021A 9310 ZZ 1 1 XXXX XX             STS $0100, r17      ;W 00 0100
021B 0100 ZZ 1 0 0100 00             STS $0100, r17      ;W 00 0100
XXXX 0100 ZZ 1 1 XXXX XX             STS $0100, r17      ;W 00 0100
021C 9468 ZZ 1 1 XXXX XX             BSET SREG_T         ; Set the T bit
021D F917 ZZ 1 1 XXXX XX             BLD r17, 7          ; Write 1 to target bit
021E 9310 ZZ 1 1 XXXX XX             STS $0100, r17      ;W 80 0100
021F 0100 ZZ 1 0 0100 80             STS $0100, r17      ;W 80 0100
XXXX 0100 ZZ 1 1 XXXX XX             STS $0100, r17      ;W 80 0100
0220 F917 ZZ 1 1 XXXX XX             BLD r17, 7          ; Write 1 again to make sure no toggle
0221 9310 ZZ 1 1 XXXX XX             STS $0100, r17      ;W 80 0100
0222 0100 ZZ 1 0 0100 80             STS $0100, r17      ;W 80 0100
XXXX 0100 ZZ 1 1 XXXX XX             STS $0100, r17      ;W 80 0100
0223 9488 ZZ 1 1 XXXX XX         start_bset:
0224 9498 ZZ 1 1 XXXX XX         start_bset:
0225 94A8 ZZ 1 1 XXXX XX         start_bset:
0226 94B8 ZZ 1 1 XXXX XX         start_bset:
0227 94C8 ZZ 1 1 XXXX XX         start_bset:
0228 94D8 ZZ 1 1 XXXX XX         start_bset:
0229 94E8 ZZ 1 1 XXXX XX         start_bset:
022A 94F8 ZZ 1 1 XXXX XX             CLR_SREG
022B E000 ZZ 1 1 XXXX XX             LDI r16, $00
022C BF0F ZZ 1 1 XXXX XX             OUT SREG_ADDR, r16
022D 9438 ZZ 1 1 XXXX XX             BSET SREG_V
022E B72F ZZ 1 1 XXXX XX             IN  r18, SREG_ADDR  ; Read the Status register
022F 9320 ZZ 1 1 XXXX XX             STS $0100, r18      ;W 08 0100
0230 0100 ZZ 1 0 0100 08             STS $0100, r18      ;W 08 0100
XXXX 0100 ZZ 1 1 XXXX XX             STS $0100, r18      ;W 08 0100
0231 9458 ZZ 1 1 XXXX XX             BSET SREG_H
0232 B72F ZZ 1 1 XXXX XX             IN  r18, SREG_ADDR  ; Read the Status register
0233 9320 ZZ 1 1 XXXX XX             STS $0100, r18      ;W 28 0100
0234 0100 ZZ 1 0 0100 28             STS $0100, r18      ;W 28 0100
XXXX 0100 ZZ 1 1 XXXX XX             STS $0100, r18      ;W 28 0100
0235 9468 ZZ 1 1 XXXX XX             BSET SREG_T
0236 B72F ZZ 1 1 XXXX XX             IN  r18, SREG_ADDR  ; Read the Status register
0237 9320 ZZ 1 1 XXXX XX             STS $0100, r18      ;W 68 0100
0238 0100 ZZ 1 0 0100 68             STS $0100, r18      ;W 68 0100
XXXX 0100 ZZ 1 1 XXXX XX             STS $0100, r18      ;W 68 0100
0239 9418 ZZ 1 1 XXXX XX             BSET SREG_Z
023A B72F ZZ 1 1 XXXX XX             IN  r18, SREG_ADDR  ; Read the Status register
023B 9320 ZZ 1 1 XXXX XX             STS $0100, r18      ;W 6A 0100
023C 0100 ZZ 1 0 0100 6A             STS $0100, r18      ;W 6A 0100
XXXX 0100 ZZ 1 1 XXXX XX             STS $0100, r18      ;W 6A 0100
023D 9428 ZZ 1 1 XXXX XX             BSET SREG_N
023E B72F ZZ 1 1 XXXX XX             IN  r18, SREG_ADDR  ; Read the Status register
023F 9320 ZZ 1 1 XXXX XX             STS $0100, r18      ;W 6E 0100
0240 0100 ZZ 1 0 0100 6E             STS $0100, r18      ;W 6E 0100
XXXX 0100 ZZ 1 1 XXXX XX             STS $0100, r18      ;W 6E 0100
0241 9408 ZZ 1 1 XXXX XX             BSET SREG_C
0242 B72F ZZ 1 1 XXXX XX             IN  r18, SREG_ADDR  ; Read the Status register
0243 9320 ZZ 1 1 XXXX XX             STS $0100, r18      ;W 6F 0100
0244 0100 ZZ 1 0 0100 6F             STS $0100, r18      ;W 6F 0100
XXXX 0100 ZZ 1 1 XXXX XX             STS $0100, r18      ;W 6F 0100
0245 9478 ZZ 1 1 XXXX XX             BSET SREG_I
0246 B72F ZZ 1 1 XXXX XX             IN  r18, SREG_ADDR  ; Read the Status register
0247 9320 ZZ 1 1 XXXX XX             STS $0100, r18      ;W EF 0100
0248 0100 ZZ 1 0 0100 EF             STS $0100, r18      ;W EF 0100
XXXX 0100 ZZ 1 1 XXXX XX             STS $0100, r18      ;W EF 0100
0249 9448 ZZ 1 1 XXXX XX             BSET SREG_S
024A B72F ZZ 1 1 XXXX XX             IN  r18, SREG_ADDR  ; Read the Status register
024B 9320 ZZ 1 1 XXXX XX             STS $0100, r18      ;W FF 0100
024C 0100 ZZ 1 0 0100 FF             STS $0100, r18      ;W FF 0100
XXXX 0100 ZZ 1 1 XXXX XX             STS $0100, r18      ;W FF 0100
024D 9488 ZZ 1 1 XXXX XX         start_bst:
024E 9498 ZZ 1 1 XXXX XX         start_bst:
024F 94A8 ZZ 1 1 XXXX XX         start_bst:
0250 94B8 ZZ 1 1 XXXX XX         start_bst:
0251 94C8 ZZ 1 1 XXXX XX         start_bst:
0252 94D8 ZZ 1 1 XXXX XX         start_bst:
0253 94E8 ZZ 1 1 XXXX XX         start_bst:
0254 94F8 ZZ 1 1 XXXX XX             CLR_SREG
0255 E041 ZZ 1 1 XXXX XX             LDI r20, $01
0256 94E8 ZZ 1 1 XXXX XX             BCLR SREG_T
0257 FB41 ZZ 1 1 XXXX XX             BST r20, 1          ; Zero bit read in
0258 B72F ZZ 1 1 XXXX XX             IN  r18, SREG_ADDR  ; Read the Status register
0259 9320 ZZ 1 1 XXXX XX             STS $0100, r18      ;W 00 0100
025A 0100 ZZ 1 0 0100 00             STS $0100, r18      ;W 00 0100
XXXX 0100 ZZ 1 1 XXXX XX             STS $0100, r18      ;W 00 0100
025B FB40 ZZ 1 1 XXXX XX             BST r20, 0          ; One bit read in
025C B72F ZZ 1 1 XXXX XX             IN  r18, SREG_ADDR  ; Read the Status register
025D 9320 ZZ 1 1 XXXX XX             STS $0100, r18      ;W 40 0100
025E 0100 ZZ 1 0 0100 40             STS $0100, r18      ;W 40 0100
XXXX 0100 ZZ 1 1 XXXX XX             STS $0100, r18      ;W 40 0100
025F 9340 ZZ 1 1 XXXX XX             STS $0100, r20      ;W 01 0100
0260 0100 ZZ 1 0 0100 01             STS $0100, r20      ;W 01 0100
XXXX 0100 ZZ 1 1 XXXX XX             STS $0100, r20      ;W 01 0100
0261 E042 ZZ 1 1 XXXX XX             LDI r20, $02
0262 94E8 ZZ 1 1 XXXX XX             BCLR SREG_T
0263 FB40 ZZ 1 1 XXXX XX             BST r20, 0          ; Zero bit read in
0264 B72F ZZ 1 1 XXXX XX             IN  r18, SREG_ADDR  ; Read the Status register
0265 9320 ZZ 1 1 XXXX XX             STS $0100, r18      ;W 00 0100
0266 0100 ZZ 1 0 0100 00             STS $0100, r18      ;W 00 0100
XXXX 0100 ZZ 1 1 XXXX XX             STS $0100, r18      ;W 00 0100
0267 FB41 ZZ 1 1 XXXX XX             BST r20, 1
0268 B72F ZZ 1 1 XXXX XX             IN  r18, SREG_ADDR  ; Read the Status register
0269 9320 ZZ 1 1 XXXX XX             STS $0100, r18      ;W 40 0100
026A 0100 ZZ 1 0 0100 40             STS $0100, r18      ;W 40 0100
XXXX 0100 ZZ 1 1 XXXX XX             STS $0100, r18      ;W 40 0100
026B 9340 ZZ 1 1 XXXX XX             STS $0100, r20      ;W 02 0100
026C 0100 ZZ 1 0 0100 02             STS $0100, r20      ;W 02 0100
XXXX 0100 ZZ 1 1 XXXX XX             STS $0100, r20      ;W 02 0100
026D E044 ZZ 1 1 XXXX XX             LDI r20, $04
026E 94E8 ZZ 1 1 XXXX XX             BCLR SREG_T
026F FB47 ZZ 1 1 XXXX XX             BST r20, 7          ; Zero bit read in
0270 B72F ZZ 1 1 XXXX XX             IN  r18, SREG_ADDR  ; Read the Status register
0271 9320 ZZ 1 1 XXXX XX             STS $0100, r18      ;W 00 0100
0272 0100 ZZ 1 0 0100 00             STS $0100, r18      ;W 00 0100
XXXX 0100 ZZ 1 1 XXXX XX             STS $0100, r18      ;W 00 0100
0273 FB42 ZZ 1 1 XXXX XX             BST r20, 2
0274 B72F ZZ 1 1 XXXX XX             IN  r18, SREG_ADDR  ; Read the Status register
0275 9320 ZZ 1 1 XXXX XX             STS $0100, r18      ;W 40 0100
0276 0100 ZZ 1 0 0100 40             STS $0100, r18      ;W 40 0100
XXXX 0100 ZZ 1 1 XXXX XX             STS $0100, r18      ;W 40 0100
0277 9340 ZZ 1 1 XXXX XX             STS $0100, r20      ;W 04 0100
0278 0100 ZZ 1 0 0100 04             STS $0100, r20      ;W 04 0100
XXXX 0100 ZZ 1 1 XXXX XX             STS $0100, r20      ;W 04 0100
0279 E048 ZZ 1 1 XXXX XX             LDI r20, $08
027A 94E8 ZZ 1 1 XXXX XX             BCLR SREG_T
027B FB46 ZZ 1 1 XXXX XX             BST r20, 6          ; Zero bit read in
027C B72F ZZ 1 1 XXXX XX             IN  r18, SREG_ADDR  ; Read the Status register
027D 9320 ZZ 1 1 XXXX XX             STS $0100, r18      ;W 00 0100
027E 0100 ZZ 1 0 0100 00             STS $0100, r18      ;W 00 0100
XXXX 0100 ZZ 1 1 XXXX XX             STS $0100, r18      ;W 00 0100
027F FB43 ZZ 1 1 XXXX XX             BST r20, 3
0280 B72F ZZ 1 1 XXXX XX             IN  r18, SREG_ADDR  ; Read the Status register
0281 9320 ZZ 1 1 XXXX XX             STS $0100, r18      ;W 40 0100
0282 0100 ZZ 1 0 0100 40             STS $0100, r18      ;W 40 0100
XXXX 0100 ZZ 1 1 XXXX XX             STS $0100, r18      ;W 40 0100
0283 9340 ZZ 1 1 XXXX XX             STS $0100, r20      ;W 08 0100
0284 0100 ZZ 1 0 0100 08             STS $0100, r20      ;W 08 0100
XXXX 0100 ZZ 1 1 XXXX XX             STS $0100, r20      ;W 08 0100
0285 E140 ZZ 1 1 XXXX XX             LDI r20, $10
0286 94E8 ZZ 1 1 XXXX XX             BCLR SREG_T
0287 FB45 ZZ 1 1 XXXX XX             BST r20, 5          ; Zero bit read in
0288 B72F ZZ 1 1 XXXX XX             IN  r18, SREG_ADDR  ; Read the Status register
0289 9320 ZZ 1 1 XXXX XX             STS $0100, r18      ;W 00 0100
028A 0100 ZZ 1 0 0100 00             STS $0100, r18      ;W 00 0100
XXXX 0100 ZZ 1 1 XXXX XX             STS $0100, r18      ;W 00 0100
028B FB44 ZZ 1 1 XXXX XX             BST r20, 4
028C B72F ZZ 1 1 XXXX XX             IN  r18, SREG_ADDR  ; Read the Status register
028D 9320 ZZ 1 1 XXXX XX             STS $0100, r18      ;W 40 0100
028E 0100 ZZ 1 0 0100 40             STS $0100, r18      ;W 40 0100
XXXX 0100 ZZ 1 1 XXXX XX             STS $0100, r18      ;W 40 0100
028F 9340 ZZ 1 1 XXXX XX             STS $0100, r20      ;W 10 0100
0290 0100 ZZ 1 0 0100 10             STS $0100, r20      ;W 10 0100
XXXX 0100 ZZ 1 1 XXXX XX             STS $0100, r20      ;W 10 0100
0291 E240 ZZ 1 1 XXXX XX             LDI r20, $20
0292 94E8 ZZ 1 1 XXXX XX             BCLR SREG_T
0293 FB44 ZZ 1 1 XXXX XX             BST r20, 4          ; Zero bit read in
0294 B72F ZZ 1 1 XXXX XX             IN  r18, SREG_ADDR  ; Read the Status register
0295 9320 ZZ 1 1 XXXX XX             STS $0100, r18      ;W 00 0100
0296 0100 ZZ 1 0 0100 00             STS $0100, r18      ;W 00 0100
XXXX 0100 ZZ 1 1 XXXX XX             STS $0100, r18      ;W 00 0100
0297 FB45 ZZ 1 1 XXXX XX             BST r20, 5
0298 B72F ZZ 1 1 XXXX XX             IN  r18, SREG_ADDR  ; Read the Status register
0299 9320 ZZ 1 1 XXXX XX             STS $0100, r18      ;W 40 0100
029A 0100 ZZ 1 0 0100 40             STS $0100, r18      ;W 40 0100
XXXX 0100 ZZ 1 1 XXXX XX             STS $0100, r18      ;W 40 0100
029B 9340 ZZ 1 1 XXXX XX             STS $0100, r20      ;W 20 0100
029C 0100 ZZ 1 0 0100 20             STS $0100, r20      ;W 20 0100
XXXX 0100 ZZ 1 1 XXXX XX             STS $0100, r20      ;W 20 0100
029D E440 ZZ 1 1 XXXX XX             LDI r20, $40
029E 94E8 ZZ 1 1 XXXX XX             BCLR SREG_T
029F FB43 ZZ 1 1 XXXX XX             BST r20, 3          ; Zero bit read in
02A0 B72F ZZ 1 1 XXXX XX             IN  r18, SREG_ADDR  ; Read the Status register
02A1 9320 ZZ 1 1 XXXX XX             STS $0100, r18      ;W 00 0100
02A2 0100 ZZ 1 0 0100 00             STS $0100, r18      ;W 00 0100
XXXX 0100 ZZ 1 1 XXXX XX             STS $0100, r18      ;W 00 0100
02A3 FB46 ZZ 1 1 XXXX XX             BST r20, 6
02A4 B72F ZZ 1 1 XXXX XX             IN  r18, SREG_ADDR  ; Read the Status register
02A5 9320 ZZ 1 1 XXXX XX             STS $0100, r18      ;W 40 0100
02A6 0100 ZZ 1 0 0100 40             STS $0100, r18      ;W 40 0100
XXXX 0100 ZZ 1 1 XXXX XX             STS $0100, r18      ;W 40 0100
02A7 9340 ZZ 1 1 XXXX XX             STS $0100, r20      ;W 40 0100
02A8 0100 ZZ 1 0 0100 40             STS $0100, r20      ;W 40 0100
XXXX 0100 ZZ 1 1 XXXX XX             STS $0100, r20      ;W 40 0100
02A9 E840 ZZ 1 1 XXXX XX             LDI r20, $80
02AA 94E8 ZZ 1 1 XXXX XX             BCLR SREG_T
02AB FB42 ZZ 1 1 XXXX XX             BST r20, 2          ; Zero bit read in
02AC B72F ZZ 1 1 XXXX XX             IN  r18, SREG_ADDR  ; Read the Status register
02AD 9320 ZZ 1 1 XXXX XX             STS $0100, r18      ;W 00 0100
02AE 0100 ZZ 1 0 0100 00             STS $0100, r18      ;W 00 0100
XXXX 0100 ZZ 1 1 XXXX XX             STS $0100, r18      ;W 00 0100
02AF FB47 ZZ 1 1 XXXX XX             BST r20, 7
02B0 B72F ZZ 1 1 XXXX XX             IN  r18, SREG_ADDR  ; Read the Status register
02B1 9320 ZZ 1 1 XXXX XX             STS $0100, r18      ;W 40 0100
02B2 0100 ZZ 1 0 0100 40             STS $0100, r18      ;W 40 0100
XXXX 0100 ZZ 1 1 XXXX XX             STS $0100, r18      ;W 40 0100
02B3 9340 ZZ 1 1 XXXX XX             STS $0100, r20      ;W 80 0100
02B4 0100 ZZ 1 0 0100 80             STS $0100, r20      ;W 80 0100
XXXX 0100 ZZ 1 1 XXXX XX             STS $0100, r20      ;W 80 0100
02B5 9488 ZZ 1 1 XXXX XX         start_com:
02B6 9498 ZZ 1 1 XXXX XX         start_com:
02B7 94A8 ZZ 1 1 XXXX XX         start_com:
02B8 94B8 ZZ 1 1 XXXX XX         start_com:
02B9 94C8 ZZ 1 1 XXXX XX         start_com:
02BA 94D8 ZZ 1 1 XXXX XX         start_com:
02BB 94E8 ZZ 1 1 XXXX XX         start_com:
02BC 94F8 ZZ 1 1 XXXX XX             CLR_SREG
02BD E060 ZZ 1 1 XXXX XX             LDI r22, $00        ;
02BE 2E66 ZZ 1 1 XXXX XX             MOV r6, r22
02BF 9460 ZZ 1 1 XXXX XX             COM r6
02C0 B72F ZZ 1 1 XXXX XX             IN  r18, SREG_ADDR  ; Read the Status register
02C1 9260 ZZ 1 1 XXXX XX             STS $0100, r6       ;W FF 0100
02C2 0100 ZZ 1 0 0100 FF             STS $0100, r6       ;W FF 0100
XXXX 0100 ZZ 1 1 XXXX XX             STS $0100, r6       ;W FF 0100
02C3 9320 ZZ 1 1 XXXX XX             STS $0100, r18      ;W 15 0100
02C4 0100 ZZ 1 0 0100 15             STS $0100, r18      ;W 15 0100
XXXX 0100 ZZ 1 1 XXXX XX             STS $0100, r18      ;W 15 0100
02C5 9460 ZZ 1 1 XXXX XX             COM r6
02C6 B72F ZZ 1 1 XXXX XX             IN  r18, SREG_ADDR  ; Read the Status register
02C7 9260 ZZ 1 1 XXXX XX             STS $0100, r6       ;W 00 0100
02C8 0100 ZZ 1 0 0100 00             STS $0100, r6       ;W 00 0100
XXXX 0100 ZZ 1 1 XXXX XX             STS $0100, r6       ;W 00 0100
02C9 9320 ZZ 1 1 XXXX XX             STS $0100, r18      ;W 03 0100
02CA 0100 ZZ 1 0 0100 03             STS $0100, r18      ;W 03 0100
XXXX 0100 ZZ 1 1 XXXX XX             STS $0100, r18      ;W 03 0100
02CB E061 ZZ 1 1 XXXX XX             LDI r22, $01        ;
02CC 2E66 ZZ 1 1 XXXX XX             MOV r6, r22
02CD 9460 ZZ 1 1 XXXX XX             COM r6
02CE B72F ZZ 1 1 XXXX XX             IN  r18, SREG_ADDR  ; Read the Status register
02CF 9260 ZZ 1 1 XXXX XX             STS $0100, r6       ;W FE 0100
02D0 0100 ZZ 1 0 0100 FE             STS $0100, r6       ;W FE 0100
XXXX 0100 ZZ 1 1 XXXX XX             STS $0100, r6       ;W FE 0100
02D1 9320 ZZ 1 1 XXXX XX             STS $0100, r18      ;W 15 0100
02D2 0100 ZZ 1 0 0100 15             STS $0100, r18      ;W 15 0100
XXXX 0100 ZZ 1 1 XXXX XX             STS $0100, r18      ;W 15 0100
02D3 9460 ZZ 1 1 XXXX XX             COM r6
02D4 B72F ZZ 1 1 XXXX XX             IN  r18, SREG_ADDR  ; Read the Status register
02D5 9260 ZZ 1 1 XXXX XX             STS $0100, r6       ;W 01 0100
02D6 0100 ZZ 1 0 0100 01             STS $0100, r6       ;W 01 0100
XXXX 0100 ZZ 1 1 XXXX XX             STS $0100, r6       ;W 01 0100
02D7 9320 ZZ 1 1 XXXX XX             STS $0100, r18      ;W 01 0100
02D8 0100 ZZ 1 0 0100 01             STS $0100, r18      ;W 01 0100
XXXX 0100 ZZ 1 1 XXXX XX             STS $0100, r18      ;W 01 0100
02D9 E664 ZZ 1 1 XXXX XX             LDI r22, $64        ; Value is 100
02DA 2E66 ZZ 1 1 XXXX XX             MOV r6, r22
02DB 9460 ZZ 1 1 XXXX XX             COM r6
02DC B72F ZZ 1 1 XXXX XX             IN  r18, SREG_ADDR  ; Read the Status register
02DD 9260 ZZ 1 1 XXXX XX             STS $0100, r6       ;W 9B 0100
02DE 0100 ZZ 1 0 0100 9B             STS $0100, r6       ;W 9B 0100
XXXX 0100 ZZ 1 1 XXXX XX             STS $0100, r6       ;W 9B 0100
02DF 9320 ZZ 1 1 XXXX XX             STS $0100, r18      ;W 15 0100
02E0 0100 ZZ 1 0 0100 15             STS $0100, r18      ;W 15 0100
XXXX 0100 ZZ 1 1 XXXX XX             STS $0100, r18      ;W 15 0100
02E1 9460 ZZ 1 1 XXXX XX             COM r6
02E2 B72F ZZ 1 1 XXXX XX             IN  r18, SREG_ADDR  ; Read the Status register
02E3 9260 ZZ 1 1 XXXX XX             STS $0100, r6       ;W 64 0100
02E4 0100 ZZ 1 0 0100 64             STS $0100, r6       ;W 64 0100
XXXX 0100 ZZ 1 1 XXXX XX             STS $0100, r6       ;W 64 0100
02E5 9320 ZZ 1 1 XXXX XX             STS $0100, r18      ;W 01 0100
02E6 0100 ZZ 1 0 0100 01             STS $0100, r18      ;W 01 0100
XXXX 0100 ZZ 1 1 XXXX XX             STS $0100, r18      ;W 01 0100
02E7 9488 ZZ 1 1 XXXX XX         start_cp:
02E8 9498 ZZ 1 1 XXXX XX         start_cp:
02E9 94A8 ZZ 1 1 XXXX XX         start_cp:
02EA 94B8 ZZ 1 1 XXXX XX         start_cp:
02EB 94C8 ZZ 1 1 XXXX XX         start_cp:
02EC 94D8 ZZ 1 1 XXXX XX         start_cp:
02ED 94E8 ZZ 1 1 XXXX XX         start_cp:
02EE 94F8 ZZ 1 1 XXXX XX             CLR_SREG
02EF E860 ZZ 1 1 XXXX XX             LDI r22, $80
02F0 2E46 ZZ 1 1 XXXX XX             MOV r4, r22
02F1 EA75 ZZ 1 1 XXXX XX             LDI r23, $A5
02F2 2E77 ZZ 1 1 XXXX XX             MOV r7, r23
02F3 1447 ZZ 1 1 XXXX XX             CP r4, r7
02F4 9240 ZZ 1 1 XXXX XX             STS $0100, r4       ;W 80 0100
02F5 0100 ZZ 1 0 0100 80             STS $0100, r4       ;W 80 0100
XXXX 0100 ZZ 1 1 XXXX XX             STS $0100, r4       ;W 80 0100
02F6 9270 ZZ 1 1 XXXX XX             STS $0100, r7       ;W A5 0100
02F7 0100 ZZ 1 0 0100 A5             STS $0100, r7       ;W A5 0100
XXXX 0100 ZZ 1 1 XXXX XX             STS $0100, r7       ;W A5 0100
02F8 EC68 ZZ 1 1 XXXX XX             LDI r22, $C8
02F9 2E46 ZZ 1 1 XXXX XX             MOV r4, r22
02FA E476 ZZ 1 1 XXXX XX             LDI r23, $46
02FB 2E77 ZZ 1 1 XXXX XX             MOV r7, r23
02FC 1447 ZZ 1 1 XXXX XX             CP r4, r7           ; Compare 200 - 70
02FD B72F ZZ 1 1 XXXX XX             IN  r18, SREG_ADDR  ; Read the Status register
02FE 9320 ZZ 1 1 XXXX XX             STS $0100, r18      ;W 14 0100
02FF 0100 ZZ 1 0 0100 14             STS $0100, r18      ;W 14 0100
XXXX 0100 ZZ 1 1 XXXX XX             STS $0100, r18      ;W 14 0100
0300 E06A ZZ 1 1 XXXX XX             LDI r22, $0A
0301 2E46 ZZ 1 1 XXXX XX             MOV r4, r22
0302 E77F ZZ 1 1 XXXX XX             LDI r23, $7F
0303 2E77 ZZ 1 1 XXXX XX             MOV r7, r23
0304 1447 ZZ 1 1 XXXX XX             CP r4, r7           ; Compare 10 - 127
0305 B72F ZZ 1 1 XXXX XX             IN  r18, SREG_ADDR  ; Read the Status register
0306 9320 ZZ 1 1 XXXX XX             STS $0100, r18      ;W 35 0100
0307 0100 ZZ 1 0 0100 35             STS $0100, r18      ;W 35 0100
XXXX 0100 ZZ 1 1 XXXX XX             STS $0100, r18      ;W 35 0100
0308 E16F ZZ 1 1 XXXX XX             LDI r22, $1F
0309 2E46 ZZ 1 1 XXXX XX             MOV r4, r22
030A E17F ZZ 1 1 XXXX XX             LDI r23, $1F
030B 2E77 ZZ 1 1 XXXX XX             MOV r7, r23
030C 1447 ZZ 1 1 XXXX XX             CP r4, r7           ; Compare 31 - 31
030D B72F ZZ 1 1 XXXX XX             IN  r18, SREG_ADDR  ; Read the Status register
030E 9320 ZZ 1 1 XXXX XX             STS $0100, r18      ;W 02 0100
030F 0100 ZZ 1 0 0100 02             STS $0100, r18      ;W 02 0100
XXXX 0100 ZZ 1 1 XXXX XX             STS $0100, r18      ;W 02 0100
0310 9488 ZZ 1 1 XXXX XX         start_cpc:
0311 9498 ZZ 1 1 XXXX XX         start_cpc:
0312 94A8 ZZ 1 1 XXXX XX         start_cpc:
0313 94B8 ZZ 1 1 XXXX XX         start_cpc:
0314 94C8 ZZ 1 1 XXXX XX         start_cpc:
0315 94D8 ZZ 1 1 XXXX XX         start_cpc:
0316 94E8 ZZ 1 1 XXXX XX         start_cpc:
0317 94F8 ZZ 1 1 XXXX XX             CLR_SREG
0318 9488 ZZ 1 1 XXXX XX             BCLR SREG_C
0319 9418 ZZ 1 1 XXXX XX             BSET SREG_Z
031A E33F ZZ 1 1 XXXX XX             LDI r19, $3F
031B E34F ZZ 1 1 XXXX XX             LDI r20, $3F
031C 0734 ZZ 1 1 XXXX XX             CPC r19, r20
031D B72F ZZ 1 1 XXXX XX             IN  r18, SREG_ADDR  ; Read the Status register
031E 9320 ZZ 1 1 XXXX XX             STS $0100, r18      ;W 02 0100
031F 0100 ZZ 1 0 0100 02             STS $0100, r18      ;W 02 0100
XXXX 0100 ZZ 1 1 XXXX XX             STS $0100, r18      ;W 02 0100
0320 9488 ZZ 1 1 XXXX XX             BCLR SREG_C
0321 9418 ZZ 1 1 XXXX XX             BSET SREG_Z
0322 E430 ZZ 1 1 XXXX XX             LDI r19, $40
0323 E34F ZZ 1 1 XXXX XX             LDI r20, $3F
0324 0734 ZZ 1 1 XXXX XX             CPC r19, r20
0325 B72F ZZ 1 1 XXXX XX             IN  r18, SREG_ADDR  ; Read the Status register
0326 9320 ZZ 1 1 XXXX XX             STS $0100, r18      ;W 20 0100
0327 0100 ZZ 1 0 0100 20             STS $0100, r18      ;W 20 0100
XXXX 0100 ZZ 1 1 XXXX XX             STS $0100, r18      ;W 20 0100
0328 9408 ZZ 1 1 XXXX XX             BSET SREG_C
0329 9418 ZZ 1 1 XXXX XX             BSET SREG_Z
032A E430 ZZ 1 1 XXXX XX             LDI r19, $40
032B E34F ZZ 1 1 XXXX XX             LDI r20, $3F
032C 0734 ZZ 1 1 XXXX XX             CPC r19, r20
032D B72F ZZ 1 1 XXXX XX             IN  r18, SREG_ADDR  ; Read the Status register
032E 9320 ZZ 1 1 XXXX XX             STS $0100, r18      ;W 22 0100
032F 0100 ZZ 1 0 0100 22             STS $0100, r18      ;W 22 0100
XXXX 0100 ZZ 1 1 XXXX XX             STS $0100, r18      ;W 22 0100
0330 9408 ZZ 1 1 XXXX XX             BSET SREG_C
0331 9418 ZZ 1 1 XXXX XX             BSET SREG_Z
0332 E33F ZZ 1 1 XXXX XX             LDI r19, $3F
0333 E34F ZZ 1 1 XXXX XX             LDI r20, $3F
0334 0734 ZZ 1 1 XXXX XX             CPC r19, r20
0335 B72F ZZ 1 1 XXXX XX             IN  r18, SREG_ADDR  ; Read the Status register
0336 9320 ZZ 1 1 XXXX XX             STS $0100, r18      ;W 35 0100
0337 0100 ZZ 1 0 0100 35             STS $0100, r18      ;W 35 0100
XXXX 0100 ZZ 1 1 XXXX XX             STS $0100, r18      ;W 35 0100
0338 9488 ZZ 1 1 XXXX XX         start_cpi:
0339 9498 ZZ 1 1 XXXX XX         start_cpi:
033A 94A8 ZZ 1 1 XXXX XX         start_cpi:
033B 94B8 ZZ 1 1 XXXX XX         start_cpi:
033C 94C8 ZZ 1 1 XXXX XX         start_cpi:
033D 94D8 ZZ 1 1 XXXX XX         start_cpi:
033E 94E8 ZZ 1 1 XXXX XX         start_cpi:
033F 94F8 ZZ 1 1 XXXX XX             CLR_SREG
0340 E880 ZZ 1 1 XXXX XX             LDI r24, $80
0341 3A85 ZZ 1 1 XXXX XX             CPI r24, $A5
0342 9380 ZZ 1 1 XXXX XX             STS $0100, r24       ;W 80 0100
0343 0100 ZZ 1 0 0100 80             STS $0100, r24       ;W 80 0100
XXXX 0100 ZZ 1 1 XXXX XX             STS $0100, r24       ;W 80 0100
0344 EC88 ZZ 1 1 XXXX XX             LDI r24, $C8
0345 3486 ZZ 1 1 XXXX XX             CPI r24, $46           ; Compare 200 - 70
0346 B72F ZZ 1 1 XXXX XX             IN  r18, SREG_ADDR  ; Read the Status register
0347 9320 ZZ 1 1 XXXX XX             STS $0100, r18      ;W 14 0100
0348 0100 ZZ 1 0 0100 14             STS $0100, r18      ;W 14 0100
XXXX 0100 ZZ 1 1 XXXX XX             STS $0100, r18      ;W 14 0100
0349 E08A ZZ 1 1 XXXX XX             LDI r24, $0A
034A 378F ZZ 1 1 XXXX XX             CPI r24, $7F           ; Compare 10 - 127
034B B72F ZZ 1 1 XXXX XX             IN  r18, SREG_ADDR  ; Read the Status register
034C 9320 ZZ 1 1 XXXX XX             STS $0100, r18      ;W 35 0100
034D 0100 ZZ 1 0 0100 35             STS $0100, r18      ;W 35 0100
XXXX 0100 ZZ 1 1 XXXX XX             STS $0100, r18      ;W 35 0100
034E E18F ZZ 1 1 XXXX XX             LDI r24, $1F
034F 318F ZZ 1 1 XXXX XX             CPI r24, $1F           ; Compare 31 - 31
0350 B72F ZZ 1 1 XXXX XX             IN  r18, SREG_ADDR  ; Read the Status register
0351 9320 ZZ 1 1 XXXX XX             STS $0100, r18      ;W 02 0100
0352 0100 ZZ 1 0 0100 02             STS $0100, r18      ;W 02 0100
XXXX 0100 ZZ 1 1 XXXX XX             STS $0100, r18      ;W 02 0100
0353 9488 ZZ 1 1 XXXX XX         start_dec:
0354 9498 ZZ 1 1 XXXX XX         start_dec:
0355 94A8 ZZ 1 1 XXXX XX         start_dec:
0356 94B8 ZZ 1 1 XXXX XX         start_dec:
0357 94C8 ZZ 1 1 XXXX XX         start_dec:
0358 94D8 ZZ 1 1 XXXX XX         start_dec:
0359 94E8 ZZ 1 1 XXXX XX         start_dec:
035A 94F8 ZZ 1 1 XXXX XX             CLR_SREG
035B E0B2 ZZ 1 1 XXXX XX             LDI r27, $02        ; Initialize to 2
035C 95BA ZZ 1 1 XXXX XX             DEC r27
035D B72F ZZ 1 1 XXXX XX             IN  r18, SREG_ADDR  ; Read the Status register
035E 9320 ZZ 1 1 XXXX XX             STS $0100, r18      ;W 00 0100
035F 0100 ZZ 1 0 0100 00             STS $0100, r18      ;W 00 0100
XXXX 0100 ZZ 1 1 XXXX XX             STS $0100, r18      ;W 00 0100
0360 93B0 ZZ 1 1 XXXX XX             STS $0100, r27      ;W 01 0100
0361 0100 ZZ 1 0 0100 01             STS $0100, r27      ;W 01 0100
XXXX 0100 ZZ 1 1 XXXX XX             STS $0100, r27      ;W 01 0100
0362 95BA ZZ 1 1 XXXX XX             DEC r27
0363 B72F ZZ 1 1 XXXX XX             IN  r18, SREG_ADDR  ; Read the Status register
0364 9320 ZZ 1 1 XXXX XX             STS $0100, r18      ;W 02 0100
0365 0100 ZZ 1 0 0100 02             STS $0100, r18      ;W 02 0100
XXXX 0100 ZZ 1 1 XXXX XX             STS $0100, r18      ;W 02 0100
0366 93B0 ZZ 1 1 XXXX XX             STS $0100, r27      ;W 00 0100
0367 0100 ZZ 1 0 0100 00             STS $0100, r27      ;W 00 0100
XXXX 0100 ZZ 1 1 XXXX XX             STS $0100, r27      ;W 00 0100
0368 95BA ZZ 1 1 XXXX XX             DEC r27
0369 B72F ZZ 1 1 XXXX XX             IN  r18, SREG_ADDR  ; Read the Status register
036A 9320 ZZ 1 1 XXXX XX             STS $0100, r18      ;W 14 0100
036B 0100 ZZ 1 0 0100 14             STS $0100, r18      ;W 14 0100
XXXX 0100 ZZ 1 1 XXXX XX             STS $0100, r18      ;W 14 0100
036C 93B0 ZZ 1 1 XXXX XX             STS $0100, r27      ;W FF 0100
036D 0100 ZZ 1 0 0100 FF             STS $0100, r27      ;W FF 0100
XXXX 0100 ZZ 1 1 XXXX XX             STS $0100, r27      ;W FF 0100
036E 95BA ZZ 1 1 XXXX XX             DEC r27
036F B72F ZZ 1 1 XXXX XX             IN  r18, SREG_ADDR  ; Read the Status register
0370 9320 ZZ 1 1 XXXX XX             STS $0100, r18      ;W 14 0100
0371 0100 ZZ 1 0 0100 14             STS $0100, r18      ;W 14 0100
XXXX 0100 ZZ 1 1 XXXX XX             STS $0100, r18      ;W 14 0100
0372 93B0 ZZ 1 1 XXXX XX             STS $0100, r27      ;W FE 0100
0373 0100 ZZ 1 0 0100 FE             STS $0100, r27      ;W FE 0100
XXXX 0100 ZZ 1 1 XXXX XX             STS $0100, r27      ;W FE 0100
0374 E8B1 ZZ 1 1 XXXX XX             LDI r27, $81        ; Initialize to -127
0375 95BA ZZ 1 1 XXXX XX             DEC r27
0376 B72F ZZ 1 1 XXXX XX             IN  r18, SREG_ADDR  ; Read the Status register
0377 9320 ZZ 1 1 XXXX XX             STS $0100, r18      ;W 14 0100
0378 0100 ZZ 1 0 0100 14             STS $0100, r18      ;W 14 0100
XXXX 0100 ZZ 1 1 XXXX XX             STS $0100, r18      ;W 14 0100
0379 93B0 ZZ 1 1 XXXX XX             STS $0100, r27      ;W 80 0100
037A 0100 ZZ 1 0 0100 80             STS $0100, r27      ;W 80 0100
XXXX 0100 ZZ 1 1 XXXX XX             STS $0100, r27      ;W 80 0100
037B 95BA ZZ 1 1 XXXX XX             DEC r27
037C B72F ZZ 1 1 XXXX XX             IN  r18, SREG_ADDR  ; Read the Status register
037D 9320 ZZ 1 1 XXXX XX             STS $0100, r18      ;W 18 0100
037E 0100 ZZ 1 0 0100 18             STS $0100, r18      ;W 18 0100
XXXX 0100 ZZ 1 1 XXXX XX             STS $0100, r18      ;W 18 0100
037F 93B0 ZZ 1 1 XXXX XX             STS $0100, r27      ;W 7F 0100
0380 0100 ZZ 1 0 0100 7F             STS $0100, r27      ;W 7F 0100
XXXX 0100 ZZ 1 1 XXXX XX             STS $0100, r27      ;W 7F 0100
0381 95BA ZZ 1 1 XXXX XX             DEC r27
0382 B72F ZZ 1 1 XXXX XX             IN  r18, SREG_ADDR  ; Read the Status register
0383 9320 ZZ 1 1 XXXX XX             STS $0100, r18      ;W 00 0100
0384 0100 ZZ 1 0 0100 00             STS $0100, r18      ;W 00 0100
XXXX 0100 ZZ 1 1 XXXX XX             STS $0100, r18      ;W 00 0100
0385 93B0 ZZ 1 1 XXXX XX             STS $0100, r27      ;W 7E 0100
0386 0100 ZZ 1 0 0100 7E             STS $0100, r27      ;W 7E 0100
XXXX 0100 ZZ 1 1 XXXX XX             STS $0100, r27      ;W 7E 0100
0387 9488 ZZ 1 1 XXXX XX         start_eor:
0388 9498 ZZ 1 1 XXXX XX         start_eor:
0389 94A8 ZZ 1 1 XXXX XX         start_eor:
038A 94B8 ZZ 1 1 XXXX XX         start_eor:
038B 94C8 ZZ 1 1 XXXX XX         start_eor:
038C 94D8 ZZ 1 1 XXXX XX         start_eor:
038D 94E8 ZZ 1 1 XXXX XX         start_eor:
038E 94F8 ZZ 1 1 XXXX XX             CLR_SREG
038F E040 ZZ 1 1 XXXX XX             LDI r20, $00
0390 E050 ZZ 1 1 XXXX XX             LDI r21, $00
0391 2745 ZZ 1 1 XXXX XX             EOR r20, r21
0392 B72F ZZ 1 1 XXXX XX             IN  r18, SREG_ADDR  ; Read the Status register
0393 9320 ZZ 1 1 XXXX XX             STS $0100, r18      ;W 02 0100
0394 0100 ZZ 1 0 0100 02             STS $0100, r18      ;W 02 0100
XXXX 0100 ZZ 1 1 XXXX XX             STS $0100, r18      ;W 02 0100
0395 9340 ZZ 1 1 XXXX XX             STS $0100, r20      ;W 00 0100
0396 0100 ZZ 1 0 0100 00             STS $0100, r20      ;W 00 0100
XXXX 0100 ZZ 1 1 XXXX XX             STS $0100, r20      ;W 00 0100
0397 9350 ZZ 1 1 XXXX XX             STS $0100, r21      ;W 00 0100
0398 0100 ZZ 1 0 0100 00             STS $0100, r21      ;W 00 0100
XXXX 0100 ZZ 1 1 XXXX XX             STS $0100, r21      ;W 00 0100
0399 E040 ZZ 1 1 XXXX XX             LDI r20, $00
039A EF5F ZZ 1 1 XXXX XX             LDI r21, $FF
039B 2745 ZZ 1 1 XXXX XX             EOR r20, r21
039C B72F ZZ 1 1 XXXX XX             IN  r18, SREG_ADDR  ; Read the Status register
039D 9320 ZZ 1 1 XXXX XX             STS $0100, r18      ;W 14 0100
039E 0100 ZZ 1 0 0100 14             STS $0100, r18      ;W 14 0100
XXXX 0100 ZZ 1 1 XXXX XX             STS $0100, r18      ;W 14 0100
039F 9340 ZZ 1 1 XXXX XX             STS $0100, r20      ;W FF 0100
03A0 0100 ZZ 1 0 0100 FF             STS $0100, r20      ;W FF 0100
XXXX 0100 ZZ 1 1 XXXX XX             STS $0100, r20      ;W FF 0100
03A1 9350 ZZ 1 1 XXXX XX             STS $0100, r21      ;W FF 0100
03A2 0100 ZZ 1 0 0100 FF             STS $0100, r21      ;W FF 0100
XXXX 0100 ZZ 1 1 XXXX XX             STS $0100, r21      ;W FF 0100
03A3 EF4F ZZ 1 1 XXXX XX             LDI r20, $FF
03A4 E050 ZZ 1 1 XXXX XX             LDI r21, $00
03A5 2745 ZZ 1 1 XXXX XX             EOR r20, r21
03A6 B72F ZZ 1 1 XXXX XX             IN  r18, SREG_ADDR  ; Read the Status register
03A7 9320 ZZ 1 1 XXXX XX             STS $0100, r18      ;W 14 0100
03A8 0100 ZZ 1 0 0100 14             STS $0100, r18      ;W 14 0100
XXXX 0100 ZZ 1 1 XXXX XX             STS $0100, r18      ;W 14 0100
03A9 9340 ZZ 1 1 XXXX XX             STS $0100, r20      ;W FF 0100
03AA 0100 ZZ 1 0 0100 FF             STS $0100, r20      ;W FF 0100
XXXX 0100 ZZ 1 1 XXXX XX             STS $0100, r20      ;W FF 0100
03AB 9350 ZZ 1 1 XXXX XX             STS $0100, r21      ;W 00 0100
03AC 0100 ZZ 1 0 0100 00             STS $0100, r21      ;W 00 0100
XXXX 0100 ZZ 1 1 XXXX XX             STS $0100, r21      ;W 00 0100
03AD EF4F ZZ 1 1 XXXX XX             LDI r20, $FF
03AE EF5F ZZ 1 1 XXXX XX             LDI r21, $FF
03AF 2745 ZZ 1 1 XXXX XX             EOR r20, r21
03B0 B72F ZZ 1 1 XXXX XX             IN  r18, SREG_ADDR  ; Read the Status register
03B1 9320 ZZ 1 1 XXXX XX             STS $0100, r18      ;W 02 0100
03B2 0100 ZZ 1 0 0100 02             STS $0100, r18      ;W 02 0100
XXXX 0100 ZZ 1 1 XXXX XX             STS $0100, r18      ;W 02 0100
03B3 9340 ZZ 1 1 XXXX XX             STS $0100, r20      ;W 00 0100
03B4 0100 ZZ 1 0 0100 00             STS $0100, r20      ;W 00 0100
XXXX 0100 ZZ 1 1 XXXX XX             STS $0100, r20      ;W 00 0100
03B5 9350 ZZ 1 1 XXXX XX             STS $0100, r21      ;W FF 0100
03B6 0100 ZZ 1 0 0100 FF             STS $0100, r21      ;W FF 0100
XXXX 0100 ZZ 1 1 XXXX XX             STS $0100, r21      ;W FF 0100
03B7 E947 ZZ 1 1 XXXX XX             LDI r20, $97        ; 10010111
03B8 EA54 ZZ 1 1 XXXX XX             LDI r21, $A4        ; 10100100
03B9 2745 ZZ 1 1 XXXX XX             EOR r20, r21
03BA B72F ZZ 1 1 XXXX XX             IN  r18, SREG_ADDR  ; Read the Status register
03BB 9320 ZZ 1 1 XXXX XX             STS $0100, r18      ;W 00 0100
03BC 0100 ZZ 1 0 0100 00             STS $0100, r18      ;W 00 0100
XXXX 0100 ZZ 1 1 XXXX XX             STS $0100, r18      ;W 00 0100
03BD 9340 ZZ 1 1 XXXX XX             STS $0100, r20      ;W 33 0100
03BE 0100 ZZ 1 0 0100 33             STS $0100, r20      ;W 33 0100
XXXX 0100 ZZ 1 1 XXXX XX             STS $0100, r20      ;W 33 0100
03BF 9350 ZZ 1 1 XXXX XX             STS $0100, r21      ;W A4 0100
03C0 0100 ZZ 1 0 0100 A4             STS $0100, r21      ;W A4 0100
XXXX 0100 ZZ 1 1 XXXX XX             STS $0100, r21      ;W A4 0100
03C1 9488 ZZ 1 1 XXXX XX         start_inc:
03C2 9498 ZZ 1 1 XXXX XX         start_inc:
03C3 94A8 ZZ 1 1 XXXX XX         start_inc:
03C4 94B8 ZZ 1 1 XXXX XX         start_inc:
03C5 94C8 ZZ 1 1 XXXX XX         start_inc:
03C6 94D8 ZZ 1 1 XXXX XX         start_inc:
03C7 94E8 ZZ 1 1 XXXX XX         start_inc:
03C8 94F8 ZZ 1 1 XXXX XX             CLR_SREG
03C9 EFBE ZZ 1 1 XXXX XX             LDI r27, $FE        ; Initialize to 254
03CA 95B3 ZZ 1 1 XXXX XX             INC r27
03CB B72F ZZ 1 1 XXXX XX             IN  r18, SREG_ADDR  ; Read the Status register
03CC 9320 ZZ 1 1 XXXX XX             STS $0100, r18      ;W 14 0100
03CD 0100 ZZ 1 0 0100 14             STS $0100, r18      ;W 14 0100
XXXX 0100 ZZ 1 1 XXXX XX             STS $0100, r18      ;W 14 0100
03CE 93B0 ZZ 1 1 XXXX XX             STS $0100, r27      ;W FF 0100
03CF 0100 ZZ 1 0 0100 FF             STS $0100, r27      ;W FF 0100
XXXX 0100 ZZ 1 1 XXXX XX             STS $0100, r27      ;W FF 0100
03D0 95B3 ZZ 1 1 XXXX XX             INC r27
03D1 B72F ZZ 1 1 XXXX XX             IN  r18, SREG_ADDR  ; Read the Status register
03D2 9320 ZZ 1 1 XXXX XX             STS $0100, r18      ;W 02 0100
03D3 0100 ZZ 1 0 0100 02             STS $0100, r18      ;W 02 0100
XXXX 0100 ZZ 1 1 XXXX XX             STS $0100, r18      ;W 02 0100
03D4 93B0 ZZ 1 1 XXXX XX             STS $0100, r27      ;W 00 0100
03D5 0100 ZZ 1 0 0100 00             STS $0100, r27      ;W 00 0100
XXXX 0100 ZZ 1 1 XXXX XX             STS $0100, r27      ;W 00 0100
03D6 95B3 ZZ 1 1 XXXX XX             INC r27
03D7 B72F ZZ 1 1 XXXX XX             IN  r18, SREG_ADDR  ; Read the Status register
03D8 9320 ZZ 1 1 XXXX XX             STS $0100, r18      ;W 00 0100
03D9 0100 ZZ 1 0 0100 00             STS $0100, r18      ;W 00 0100
XXXX 0100 ZZ 1 1 XXXX XX             STS $0100, r18      ;W 00 0100
03DA 93B0 ZZ 1 1 XXXX XX             STS $0100, r27      ;W 01 0100
03DB 0100 ZZ 1 0 0100 01             STS $0100, r27      ;W 01 0100
XXXX 0100 ZZ 1 1 XXXX XX             STS $0100, r27      ;W 01 0100
03DC 95B3 ZZ 1 1 XXXX XX             INC r27
03DD B72F ZZ 1 1 XXXX XX             IN  r18, SREG_ADDR  ; Read the Status register
03DE 9320 ZZ 1 1 XXXX XX             STS $0100, r18      ;W 00 0100
03DF 0100 ZZ 1 0 0100 00             STS $0100, r18      ;W 00 0100
XXXX 0100 ZZ 1 1 XXXX XX             STS $0100, r18      ;W 00 0100
03E0 93B0 ZZ 1 1 XXXX XX             STS $0100, r27      ;W 02 0100
03E1 0100 ZZ 1 0 0100 02             STS $0100, r27      ;W 02 0100
XXXX 0100 ZZ 1 1 XXXX XX             STS $0100, r27      ;W 02 0100
03E2 E7BE ZZ 1 1 XXXX XX             LDI r27, $7E        ; Initialize to 126
03E3 95B3 ZZ 1 1 XXXX XX             INC r27
03E4 B72F ZZ 1 1 XXXX XX             IN  r18, SREG_ADDR  ; Read the Status register
03E5 9320 ZZ 1 1 XXXX XX             STS $0100, r18      ;W 00 0100
03E6 0100 ZZ 1 0 0100 00             STS $0100, r18      ;W 00 0100
XXXX 0100 ZZ 1 1 XXXX XX             STS $0100, r18      ;W 00 0100
03E7 93B0 ZZ 1 1 XXXX XX             STS $0100, r27      ;W 7F 0100
03E8 0100 ZZ 1 0 0100 7F             STS $0100, r27      ;W 7F 0100
XXXX 0100 ZZ 1 1 XXXX XX             STS $0100, r27      ;W 7F 0100
03E9 95B3 ZZ 1 1 XXXX XX             INC r27
03EA B72F ZZ 1 1 XXXX XX             IN  r18, SREG_ADDR  ; Read the Status register
03EB 9320 ZZ 1 1 XXXX XX             STS $0100, r18      ;W 0C 0100
03EC 0100 ZZ 1 0 0100 0C             STS $0100, r18      ;W 0C 0100
XXXX 0100 ZZ 1 1 XXXX XX             STS $0100, r18      ;W 0C 0100
03ED 93B0 ZZ 1 1 XXXX XX             STS $0100, r27      ;W 80 0100
03EE 0100 ZZ 1 0 0100 80             STS $0100, r27      ;W 80 0100
XXXX 0100 ZZ 1 1 XXXX XX             STS $0100, r27      ;W 80 0100
03EF 95B3 ZZ 1 1 XXXX XX             INC r27
03F0 B72F ZZ 1 1 XXXX XX             IN  r18, SREG_ADDR  ; Read the Status register
03F1 9320 ZZ 1 1 XXXX XX             STS $0100, r18      ;W 14 0100
03F2 0100 ZZ 1 0 0100 14             STS $0100, r18      ;W 14 0100
XXXX 0100 ZZ 1 1 XXXX XX             STS $0100, r18      ;W 14 0100
03F3 93B0 ZZ 1 1 XXXX XX             STS $0100, r27      ;W 81 0100
03F4 0100 ZZ 1 0 0100 81             STS $0100, r27      ;W 81 0100
XXXX 0100 ZZ 1 1 XXXX XX             STS $0100, r27      ;W 81 0100
03F5 0000 ZZ 1 1 XXXX XX             NOP;
03F6 0000 ZZ 1 1 XXXX XX             NOP;
